Archive member included because of file (symbol)

libbb/lib.a(appletlib.o)      /home/shizhai/new_zhongwang/trunk/staging_dir/toolchain-mips_r2_gcc-4.6-linaro_uClibc-0.9.33.2/lib/gcc/mips-openwrt-linux-uclibc/4.6.4/../../../../mips-openwrt-linux-uclibc/lib/crt1.o (main)
libbb/lib.a(default_error_retval.o)
                              libbb/lib.a(appletlib.o) (xfunc_error_retval)
libbb/lib.a(get_last_path_component.o)
                              libbb/lib.a(appletlib.o) (bb_basename)
libbb/lib.a(last_char_is.o)   libbb/lib.a(get_last_path_component.o) (last_char_is)
libbb/lib.a(messages.o)       libbb/lib.a(appletlib.o) (bb_banner)
libbb/lib.a(ptr_to_globals.o)
                              libbb/lib.a(appletlib.o) (bb_errno)
libbb/lib.a(verror_msg.o)     libbb/lib.a(appletlib.o) (bb_error_msg_and_die)
libbb/lib.a(xfunc_die.o)      libbb/lib.a(appletlib.o) (xfunc_die)
libbb/lib.a(xfuncs.o)         libbb/lib.a(appletlib.o) (full_write2_str)
libbb/lib.a(xfuncs_printf.o)  libbb/lib.a(appletlib.o) (malloc_or_warn)
libbb/lib.a(copyfd.o)         libbb/lib.a(xfuncs_printf.o) (bb_copyfd_eof)
libbb/lib.a(full_write.o)     libbb/lib.a(verror_msg.o) (full_write)
libbb/lib.a(perror_msg.o)     libbb/lib.a(xfuncs_printf.o) (bb_perror_msg)
libbb/lib.a(read.o)           libbb/lib.a(copyfd.o) (safe_read)
libbb/lib.a(safe_write.o)     libbb/lib.a(full_write.o) (safe_write)
libbb/lib.a(time.o)           libbb/lib.a(xfuncs_printf.o) (monotonic_us)
libbb/lib.a(bb_strtonum.o)    libbb/lib.a(time.o) (bb_strtol)
loginutils/lib.a(passwd.o)    libbb/lib.a(appletlib.o) (passwd_main)
miscutils/lib.a(crond.o)      libbb/lib.a(appletlib.o) (crond_main)
miscutils/lib.a(crontab.o)    libbb/lib.a(appletlib.o) (crontab_main)
miscutils/lib.a(less.o)       libbb/lib.a(appletlib.o) (less_main)
miscutils/lib.a(lock.o)       libbb/lib.a(appletlib.o) (lock_main)
miscutils/lib.a(strings.o)    libbb/lib.a(appletlib.o) (strings_main)
miscutils/lib.a(time.o)       libbb/lib.a(appletlib.o) (time_main)
modutils/lib.a(insmod.o)      libbb/lib.a(appletlib.o) (insmod_main)
modutils/lib.a(lsmod.o)       libbb/lib.a(appletlib.o) (lsmod_main)
modutils/lib.a(modutils.o)    modutils/lib.a(insmod.o) (parse_cmdline_module_options)
modutils/lib.a(rmmod.o)       libbb/lib.a(appletlib.o) (rmmod_main)
networking/lib.a(arping.o)    libbb/lib.a(appletlib.o) (arping_main)
networking/lib.a(brctl.o)     libbb/lib.a(appletlib.o) (brctl_main)
networking/lib.a(ifconfig.o)  libbb/lib.a(appletlib.o) (ifconfig_main)
networking/lib.a(interface.o)
                              networking/lib.a(ifconfig.o) (display_interfaces)
networking/lib.a(nc.o)        libbb/lib.a(appletlib.o) (nc_main)
networking/lib.a(netmsg.o)    libbb/lib.a(appletlib.o) (netmsg_main)
networking/lib.a(netstat.o)   libbb/lib.a(appletlib.o) (netstat_main)
networking/lib.a(nslookup.o)  libbb/lib.a(appletlib.o) (nslookup_main)
networking/lib.a(ntpd.o)      libbb/lib.a(appletlib.o) (ntpd_main)
networking/lib.a(ping.o)      libbb/lib.a(appletlib.o) (ping_main)
networking/lib.a(route.o)     networking/lib.a(netstat.o) (bb_displayroutes)
networking/lib.a(telnet.o)    libbb/lib.a(appletlib.o) (telnet_main)
networking/lib.a(telnetd.o)   libbb/lib.a(appletlib.o) (telnetd_main)
networking/lib.a(traceroute.o)
                              libbb/lib.a(appletlib.o) (traceroute_main)
networking/lib.a(vconfig.o)   libbb/lib.a(appletlib.o) (vconfig_main)
networking/lib.a(wget.o)      libbb/lib.a(appletlib.o) (wget_main)
networking/udhcp/lib.a(dhcpc.o)
                              libbb/lib.a(appletlib.o) (udhcpc_main)
networking/udhcp/lib.a(domain_codec.o)
                              networking/udhcp/lib.a(dhcpc.o) (dname_dec)
networking/udhcp/lib.a(packet.o)
                              networking/udhcp/lib.a(dhcpc.o) (udhcp_init_header)
networking/udhcp/lib.a(signalpipe.o)
                              networking/udhcp/lib.a(dhcpc.o) (udhcp_sp_setup)
networking/udhcp/lib.a(socket.o)
                              networking/udhcp/lib.a(dhcpc.o) (udhcp_read_interface)
networking/udhcp/lib.a(common.o)
                              networking/udhcp/lib.a(dhcpc.o) (udhcp_option_idx)
procps/lib.a(free.o)          libbb/lib.a(appletlib.o) (free_main)
procps/lib.a(kill.o)          libbb/lib.a(appletlib.o) (kill_main)
procps/lib.a(pgrep.o)         libbb/lib.a(appletlib.o) (pgrep_main)
procps/lib.a(pidof.o)         libbb/lib.a(appletlib.o) (pidof_main)
procps/lib.a(ps.o)            libbb/lib.a(appletlib.o) (ps_main)
procps/lib.a(sysctl.o)        libbb/lib.a(appletlib.o) (sysctl_main)
procps/lib.a(top.o)           libbb/lib.a(appletlib.o) (top_main)
procps/lib.a(uptime.o)        libbb/lib.a(appletlib.o) (uptime_main)
shell/lib.a(ash.o)            libbb/lib.a(appletlib.o) (ash_main)
shell/lib.a(ash_ptr_hack.o)   shell/lib.a(ash.o) (ash_ptr_to_globals_var)
shell/lib.a(math.o)           shell/lib.a(ash.o) (endofname)
shell/lib.a(shell_common.o)   shell/lib.a(ash.o) (shell_builtin_read)
sysklogd/lib.a(syslogd_and_logger.o)
                              libbb/lib.a(appletlib.o) (logger_main)
util-linux/lib.a(dmesg.o)     libbb/lib.a(appletlib.o) (dmesg_main)
util-linux/lib.a(hexdump.o)   libbb/lib.a(appletlib.o) (hexdump_main)
util-linux/lib.a(hwclock.o)   libbb/lib.a(appletlib.o) (hwclock_main)
util-linux/lib.a(mkswap.o)    libbb/lib.a(appletlib.o) (mkswap_main)
util-linux/lib.a(mount.o)     libbb/lib.a(appletlib.o) (mount_main)
util-linux/lib.a(pivot_root.o)
                              libbb/lib.a(appletlib.o) (pivot_root_main)
util-linux/lib.a(swaponoff.o)
                              libbb/lib.a(appletlib.o) (swap_on_off_main)
util-linux/lib.a(switch_root.o)
                              libbb/lib.a(appletlib.o) (switch_root_main)
util-linux/lib.a(umount.o)    libbb/lib.a(appletlib.o) (umount_main)
archival/lib.a(bbunzip.o)     libbb/lib.a(appletlib.o) (gunzip_main)
archival/lib.a(gzip.o)        libbb/lib.a(appletlib.o) (gzip_main)
archival/lib.a(tar.o)         libbb/lib.a(appletlib.o) (tar_main)
archival/libarchive/lib.a(data_extract_all.o)
                              archival/lib.a(tar.o) (data_extract_all)
archival/libarchive/lib.a(data_extract_to_stdout.o)
                              archival/lib.a(tar.o) (data_extract_to_stdout)
archival/libarchive/lib.a(data_skip.o)
                              archival/libarchive/lib.a(data_extract_all.o) (data_skip)
archival/libarchive/lib.a(decompress_bunzip2.o)
                              libbb/lib.a(appletlib.o) (read_bunzip)
archival/libarchive/lib.a(decompress_unzip.o)
                              archival/lib.a(bbunzip.o) (unpack_gz_stream_with_info)
archival/libarchive/lib.a(filter_accept_reject_list.o)
                              archival/lib.a(tar.o) (filter_accept_reject_list)
archival/libarchive/lib.a(find_list_entry.o)
                              archival/lib.a(tar.o) (find_list_entry)
archival/libarchive/lib.a(get_header_tar.o)
                              archival/lib.a(tar.o) (strip_unsafe_prefix)
archival/libarchive/lib.a(get_header_tar_gz.o)
                              archival/lib.a(tar.o) (get_header_tar_gz)
archival/libarchive/lib.a(header_list.o)
                              archival/lib.a(tar.o) (header_list)
archival/libarchive/lib.a(header_verbose_list.o)
                              archival/lib.a(tar.o) (header_verbose_list)
archival/libarchive/lib.a(init_handle.o)
                              archival/lib.a(tar.o) (init_handle)
archival/libarchive/lib.a(open_transformer.o)
                              archival/libarchive/lib.a(get_header_tar_gz.o) (open_transformer)
archival/libarchive/lib.a(seek_by_jump.o)
                              archival/libarchive/lib.a(init_handle.o) (seek_by_jump)
archival/libarchive/lib.a(seek_by_read.o)
                              archival/lib.a(tar.o) (seek_by_read)
archival/libarchive/lib.a(data_align.o)
                              archival/libarchive/lib.a(get_header_tar.o) (data_align)
archival/libarchive/lib.a(filter_accept_all.o)
                              archival/libarchive/lib.a(init_handle.o) (filter_accept_all)
archival/libarchive/lib.a(header_skip.o)
                              archival/libarchive/lib.a(init_handle.o) (header_skip)
console-tools/lib.a(clear.o)  libbb/lib.a(appletlib.o) (clear_main)
console-tools/lib.a(reset.o)  libbb/lib.a(appletlib.o) (reset_main)
coreutils/lib.a(basename.o)   libbb/lib.a(appletlib.o) (basename_main)
coreutils/lib.a(cat.o)        miscutils/lib.a(crontab.o) (bb_cat)
coreutils/lib.a(chgrp.o)      libbb/lib.a(appletlib.o) (chgrp_main)
coreutils/lib.a(chmod.o)      libbb/lib.a(appletlib.o) (chmod_main)
coreutils/lib.a(chown.o)      libbb/lib.a(appletlib.o) (chown_main)
coreutils/lib.a(chroot.o)     libbb/lib.a(appletlib.o) (chroot_main)
coreutils/lib.a(cp.o)         libbb/lib.a(appletlib.o) (cp_main)
coreutils/lib.a(cut.o)        libbb/lib.a(appletlib.o) (cut_main)
coreutils/lib.a(date.o)       libbb/lib.a(appletlib.o) (date_main)
coreutils/lib.a(dd.o)         libbb/lib.a(appletlib.o) (dd_main)
coreutils/lib.a(df.o)         libbb/lib.a(appletlib.o) (df_main)
coreutils/lib.a(dirname.o)    libbb/lib.a(appletlib.o) (dirname_main)
coreutils/lib.a(du.o)         libbb/lib.a(appletlib.o) (du_main)
coreutils/lib.a(echo.o)       libbb/lib.a(appletlib.o) (echo_main)
coreutils/lib.a(env.o)        libbb/lib.a(appletlib.o) (env_main)
coreutils/lib.a(expr.o)       libbb/lib.a(appletlib.o) (expr_main)
coreutils/lib.a(false.o)      libbb/lib.a(appletlib.o) (false_main)
coreutils/lib.a(fsync.o)      libbb/lib.a(appletlib.o) (fsync_main)
coreutils/lib.a(head.o)       libbb/lib.a(appletlib.o) (head_main)
coreutils/lib.a(hostid.o)     libbb/lib.a(appletlib.o) (hostid_main)
coreutils/lib.a(id.o)         libbb/lib.a(appletlib.o) (id_main)
coreutils/lib.a(ln.o)         libbb/lib.a(appletlib.o) (ln_main)
coreutils/lib.a(ls.o)         libbb/lib.a(appletlib.o) (ls_main)
coreutils/lib.a(md5_sha1_sum.o)
                              libbb/lib.a(appletlib.o) (md5_sha1_sum_main)
coreutils/lib.a(mkdir.o)      libbb/lib.a(appletlib.o) (mkdir_main)
coreutils/lib.a(mkfifo.o)     libbb/lib.a(appletlib.o) (mkfifo_main)
coreutils/lib.a(mknod.o)      libbb/lib.a(appletlib.o) (mknod_main)
coreutils/lib.a(mv.o)         libbb/lib.a(appletlib.o) (mv_main)
coreutils/lib.a(nice.o)       libbb/lib.a(appletlib.o) (nice_main)
coreutils/lib.a(printf.o)     libbb/lib.a(appletlib.o) (printf_main)
coreutils/lib.a(pwd.o)        libbb/lib.a(appletlib.o) (pwd_main)
coreutils/lib.a(readlink.o)   libbb/lib.a(appletlib.o) (readlink_main)
coreutils/lib.a(rm.o)         libbb/lib.a(appletlib.o) (rm_main)
coreutils/lib.a(rmdir.o)      libbb/lib.a(appletlib.o) (rmdir_main)
coreutils/lib.a(seq.o)        libbb/lib.a(appletlib.o) (seq_main)
coreutils/lib.a(sleep.o)      libbb/lib.a(appletlib.o) (sleep_main)
coreutils/lib.a(sort.o)       libbb/lib.a(appletlib.o) (sort_main)
coreutils/lib.a(sync.o)       libbb/lib.a(appletlib.o) (sync_main)
coreutils/lib.a(tail.o)       libbb/lib.a(appletlib.o) (tail_main)
coreutils/lib.a(tee.o)        libbb/lib.a(appletlib.o) (tee_main)
coreutils/lib.a(test.o)       libbb/lib.a(appletlib.o) (test_main)
coreutils/lib.a(test_ptr_hack.o)
                              coreutils/lib.a(test.o) (test_ptr_to_statics)
coreutils/lib.a(touch.o)      libbb/lib.a(appletlib.o) (touch_main)
coreutils/lib.a(tr.o)         libbb/lib.a(appletlib.o) (tr_main)
coreutils/lib.a(true.o)       libbb/lib.a(appletlib.o) (true_main)
coreutils/lib.a(uname.o)      libbb/lib.a(appletlib.o) (uname_main)
coreutils/lib.a(uniq.o)       libbb/lib.a(appletlib.o) (uniq_main)
coreutils/lib.a(wc.o)         libbb/lib.a(appletlib.o) (wc_main)
coreutils/lib.a(yes.o)        libbb/lib.a(appletlib.o) (yes_main)
coreutils/libcoreutils/lib.a(cp_mv_stat.o)
                              coreutils/lib.a(cp.o) (cp_mv_stat2)
coreutils/libcoreutils/lib.a(getopt_mk_fifo_nod.o)
                              coreutils/lib.a(mkfifo.o) (getopt_mk_fifo_nod)
debianutils/lib.a(mktemp.o)   libbb/lib.a(appletlib.o) (mktemp_main)
debianutils/lib.a(start_stop_daemon.o)
                              libbb/lib.a(appletlib.o) (start_stop_daemon_main)
debianutils/lib.a(which.o)    libbb/lib.a(appletlib.o) (which_main)
editors/lib.a(awk.o)          libbb/lib.a(appletlib.o) (awk_main)
editors/lib.a(cmp.o)          libbb/lib.a(appletlib.o) (cmp_main)
editors/lib.a(sed.o)          libbb/lib.a(appletlib.o) (sed_main)
editors/lib.a(vi.o)           libbb/lib.a(appletlib.o) (vi_main)
findutils/lib.a(find.o)       libbb/lib.a(appletlib.o) (find_main)
findutils/lib.a(grep.o)       libbb/lib.a(appletlib.o) (grep_main)
findutils/lib.a(xargs.o)      libbb/lib.a(appletlib.o) (xargs_main)
init/lib.a(halt.o)            libbb/lib.a(appletlib.o) (halt_main)
libbb/lib.a(ask_confirmation.o)
                              coreutils/lib.a(mv.o) (bb_ask_confirmation)
libbb/lib.a(bb_askpass.o)     loginutils/lib.a(passwd.o) (bb_ask_stdin)
libbb/lib.a(bb_do_delay.o)    loginutils/lib.a(passwd.o) (bb_do_delay)
libbb/lib.a(bb_pwd.o)         loginutils/lib.a(passwd.o) (xgetpwnam)
libbb/lib.a(change_identity.o)
                              miscutils/lib.a(crond.o) (change_identity)
libbb/lib.a(compare_string_array.o)
                              networking/lib.a(brctl.o) (index_in_strings)
libbb/lib.a(concat_path_file.o)
                              modutils/lib.a(insmod.o) (concat_path_file)
libbb/lib.a(concat_subpath_file.o)
                              procps/lib.a(sysctl.o) (concat_subpath_file)
libbb/lib.a(copy_file.o)      coreutils/lib.a(cp.o) (copy_file)
libbb/lib.a(crc32.o)          archival/lib.a(gzip.o) (crc32_filltable)
libbb/lib.a(create_icmp6_socket.o)
                              networking/lib.a(ping.o) (create_icmp6_socket)
libbb/lib.a(create_icmp_socket.o)
                              networking/lib.a(ping.o) (create_icmp_socket)
libbb/lib.a(dump.o)           util-linux/lib.a(hexdump.o) (alloc_dumper)
libbb/lib.a(execable.o)       debianutils/lib.a(which.o) (execable_file)
libbb/lib.a(fclose_nonstdin.o)
                              miscutils/lib.a(strings.o) (fclose_if_not_stdin)
libbb/lib.a(fflush_stdout_and_exit.o)
                              miscutils/lib.a(strings.o) (fflush_stdout_and_exit)
libbb/lib.a(fgets_str.o)      networking/lib.a(netstat.o) (xmalloc_fgets_str)
libbb/lib.a(find_mount_point.o)
                              util-linux/lib.a(mount.o) (find_mount_point)
libbb/lib.a(find_pid_by_name.o)
                              procps/lib.a(kill.o) (find_pid_by_name)
libbb/lib.a(get_line_from_file.o)
                              editors/lib.a(sed.o) (bb_get_chunk_from_file)
libbb/lib.a(get_shell_name.o)
                              coreutils/lib.a(chroot.o) (get_shell_name)
libbb/lib.a(get_volsize.o)    util-linux/lib.a(mkswap.o) (get_volume_size_in_bytes)
libbb/lib.a(getopt32.o)       loginutils/lib.a(passwd.o) (getopt32)
libbb/lib.a(getpty.o)         networking/lib.a(telnetd.o) (xgetpty)
libbb/lib.a(hash_md5_sha.o)   coreutils/lib.a(md5_sha1_sum.o) (md5_begin)
libbb/lib.a(human_readable.o)
                              coreutils/lib.a(df.o) (make_human_readable_str)
libbb/lib.a(inet_common.o)    networking/lib.a(interface.o) (INET_resolve)
libbb/lib.a(info_msg.o)       loginutils/lib.a(passwd.o) (bb_info_msg)
libbb/lib.a(inode_hash.o)     coreutils/lib.a(du.o) (is_in_ino_dev_hashtable)
libbb/lib.a(isdirectory.o)    coreutils/lib.a(ln.o) (is_directory)
libbb/lib.a(lineedit.o)       shell/lib.a(ash.o) (new_line_input_t)
libbb/lib.a(lineedit_ptr_hack.o)
                              libbb/lib.a(lineedit.o) (lineedit_ptr_to_statics)
libbb/lib.a(llist.o)          networking/lib.a(ntpd.o) (llist_add_to)
libbb/lib.a(login.o)          networking/lib.a(telnetd.o) (print_login_issue)
libbb/lib.a(loop.o)           util-linux/lib.a(mount.o) (del_loop)
libbb/lib.a(make_directory.o)
                              archival/libarchive/lib.a(data_extract_all.o) (bb_make_directory)
libbb/lib.a(makedev.o)        archival/libarchive/lib.a(get_header_tar.o) (bb_makedev)
libbb/lib.a(match_fstype.o)   util-linux/lib.a(mount.o) (match_fstype)
libbb/lib.a(mode_string.o)    archival/libarchive/lib.a(header_verbose_list.o) (bb_mode_string)
libbb/lib.a(obscure.o)        loginutils/lib.a(passwd.o) (obscure)
libbb/lib.a(parse_config.o)   miscutils/lib.a(crond.o) (config_open)
libbb/lib.a(parse_mode.o)     shell/lib.a(ash.o) (bb_parse_mode)
libbb/lib.a(percent_decode.o)
                              networking/lib.a(wget.o) (percent_decode_in_place)
libbb/lib.a(perror_nomsg_and_die.o)
                              util-linux/lib.a(pivot_root.o) (bb_perror_nomsg_and_die)
libbb/lib.a(pidfile.o)        miscutils/lib.a(crond.o) (write_pidfile)
libbb/lib.a(printable.o)      networking/lib.a(netstat.o) (fputc_printable)
libbb/lib.a(printable_string.o)
                              coreutils/lib.a(ls.o) (printable_string)
libbb/lib.a(process_escape_sequence.o)
                              shell/lib.a(ash.o) (bb_process_escape_sequence)
libbb/lib.a(procps.o)         procps/lib.a(top.o) (clear_username_cache)
libbb/lib.a(progress.o)       networking/lib.a(wget.o) (bb_progress_init)
libbb/lib.a(pw_encrypt.o)     loginutils/lib.a(passwd.o) (crypt_make_pw_salt)
libbb/lib.a(read_key.o)       miscutils/lib.a(less.o) (read_key)
libbb/lib.a(read_printf.o)    shell/lib.a(ash.o) (nonblock_immune_read)
libbb/lib.a(recursive_action.o)
                              modutils/lib.a(insmod.o) (recursive_action)
libbb/lib.a(remove_file.o)    coreutils/lib.a(mv.o) (remove_file)
libbb/lib.a(rtc.o)            util-linux/lib.a(hwclock.o) (rtc_adjtime_is_utc)
libbb/lib.a(safe_gethostname.o)
                              libbb/lib.a(lineedit.o) (safe_gethostname)
libbb/lib.a(safe_poll.o)      miscutils/lib.a(less.o) (safe_poll)
libbb/lib.a(safe_strncpy.o)   networking/lib.a(netstat.o) (safe_strncpy)
libbb/lib.a(setup_environment.o)
                              miscutils/lib.a(crontab.o) (setup_environment)
libbb/lib.a(signals.o)        networking/lib.a(ntpd.o) (record_signo)
libbb/lib.a(simplify_path.o)  util-linux/lib.a(mount.o) (bb_simplify_path)
libbb/lib.a(single_argv.o)    coreutils/lib.a(dirname.o) (single_argv)
libbb/lib.a(skip_whitespace.o)
                              networking/lib.a(interface.o) (skip_whitespace)
libbb/lib.a(str_tolower.o)    networking/lib.a(wget.o) (str_tolower)
libbb/lib.a(u_signal_names.o)
                              procps/lib.a(kill.o) (get_signum)
libbb/lib.a(udp_io.o)         networking/lib.a(ntpd.o) (socket_want_pktinfo)
libbb/lib.a(update_passwd.o)  loginutils/lib.a(passwd.o) (update_passwd)
libbb/lib.a(uuencode.o)       networking/lib.a(wget.o) (bb_uuencode)
libbb/lib.a(vfork_daemon_rexec.o)
                              networking/lib.a(ntpd.o) (spawn)
libbb/lib.a(wfopen.o)         networking/lib.a(interface.o) (fopen_or_warn)
libbb/lib.a(wfopen_input.o)   miscutils/lib.a(strings.o) (fopen_or_warn_stdin)
libbb/lib.a(xatonum.o)        libbb/lib.a(get_volsize.o) (xatoull_range)
libbb/lib.a(xconnect.o)       networking/udhcp/lib.a(packet.o) (setsockopt_reuseaddr)
libbb/lib.a(xgetcwd.o)        coreutils/lib.a(pwd.o) (xrealloc_getcwd_or_warn)
libbb/lib.a(xreadlink.o)      networking/lib.a(netstat.o) (xmalloc_readlink)
libbb/lib.a(xrealloc_vector.o)
                              miscutils/lib.a(less.o) (xrealloc_vector_helper)
libbb/lib.a(xregcomp.o)       procps/lib.a(pgrep.o) (xregcomp)
libbb/lib.a(bb_bswap_64.o)    libbb/lib.a(hash_md5_sha.o) (bb_bswap_64)
libbb/lib.a(bb_qsort.o)       libbb/lib.a(lineedit.o) (qsort_string_vector)
libbb/lib.a(perror_nomsg.o)   libbb/lib.a(update_passwd.o) (bb_perror_nomsg)
libpwdgrp/lib.a(uidgid_get.o)
                              coreutils/lib.a(chown.o) (parse_chown_usergroup_or_die)
/home/shizhai/new_zhongwang/trunk/staging_dir/toolchain-mips_r2_gcc-4.6-linaro_uClibc-0.9.33.2/lib/gcc/mips-openwrt-linux-uclibc/4.6.4/../../../../mips-openwrt-linux-uclibc/lib/uclibc_nonshared.a(atexit.os)
                              editors/lib.a(sed.o) (atexit)

Allocating common symbols
Common symbol       size              file

bb_common_bufsiz1   0x1001            libbb/lib.a(messages.o)
die_jmp             0x80              libbb/lib.a(xfunc_die.o)
applet_name         0x4               libbb/lib.a(appletlib.o)
opt_complementary   0x4               libbb/lib.a(getopt32.o)
lineedit_ptr_to_statics
                    0x4               libbb/lib.a(lineedit_ptr_hack.o)
bb_errno            0x4               libbb/lib.a(ptr_to_globals.o)
ash_ptr_to_globals_memstack
                    0x4               shell/lib.a(ash_ptr_hack.o)
ash_ptr_to_globals_misc
                    0x4               shell/lib.a(ash_ptr_hack.o)
global_crc32_table  0x4               libbb/lib.a(crc32.o)
option_mask32       0x4               libbb/lib.a(getopt32.o)
die_sleep           0x4               libbb/lib.a(xfunc_die.o)
ash_ptr_to_globals_var
                    0x4               shell/lib.a(ash_ptr_hack.o)
test_ptr_to_statics
                    0x4               coreutils/lib.a(test_ptr_hack.o)
ptr_to_globals      0x4               libbb/lib.a(ptr_to_globals.o)
applet_long_options
                    0x4               libbb/lib.a(getopt32.o)
bb_got_signal       0x1               libbb/lib.a(signals.o)
wrote_pidfile       0x1               libbb/lib.a(pidfile.o)
interface_opt_a     0x1               networking/lib.a(interface.o)

Discarded input sections

 .data          0x0000000000000000       0x10 /home/shizhai/new_zhongwang/trunk/staging_dir/toolchain-mips_r2_gcc-4.6-linaro_uClibc-0.9.33.2/lib/gcc/mips-openwrt-linux-uclibc/4.6.4/../../../../mips-openwrt-linux-uclibc/lib/crt1.o
 .bss           0x0000000000000000        0x0 /home/shizhai/new_zhongwang/trunk/staging_dir/toolchain-mips_r2_gcc-4.6-linaro_uClibc-0.9.33.2/lib/gcc/mips-openwrt-linux-uclibc/4.6.4/../../../../mips-openwrt-linux-uclibc/lib/crt1.o
 .reginfo       0x0000000000000000       0x18 /home/shizhai/new_zhongwang/trunk/staging_dir/toolchain-mips_r2_gcc-4.6-linaro_uClibc-0.9.33.2/lib/gcc/mips-openwrt-linux-uclibc/4.6.4/../../../../mips-openwrt-linux-uclibc/lib/crt1.o
 .pdr           0x0000000000000000       0x20 /home/shizhai/new_zhongwang/trunk/staging_dir/toolchain-mips_r2_gcc-4.6-linaro_uClibc-0.9.33.2/lib/gcc/mips-openwrt-linux-uclibc/4.6.4/../../../../mips-openwrt-linux-uclibc/lib/crt1.o
 .note.GNU-stack
                0x0000000000000000        0x0 /home/shizhai/new_zhongwang/trunk/staging_dir/toolchain-mips_r2_gcc-4.6-linaro_uClibc-0.9.33.2/lib/gcc/mips-openwrt-linux-uclibc/4.6.4/../../../../mips-openwrt-linux-uclibc/lib/crt1.o
 .text          0x0000000000000000        0x0 /home/shizhai/new_zhongwang/trunk/staging_dir/toolchain-mips_r2_gcc-4.6-linaro_uClibc-0.9.33.2/lib/gcc/mips-openwrt-linux-uclibc/4.6.4/../../../../mips-openwrt-linux-uclibc/lib/crti.o
 .data          0x0000000000000000        0x0 /home/shizhai/new_zhongwang/trunk/staging_dir/toolchain-mips_r2_gcc-4.6-linaro_uClibc-0.9.33.2/lib/gcc/mips-openwrt-linux-uclibc/4.6.4/../../../../mips-openwrt-linux-uclibc/lib/crti.o
 .bss           0x0000000000000000        0x0 /home/shizhai/new_zhongwang/trunk/staging_dir/toolchain-mips_r2_gcc-4.6-linaro_uClibc-0.9.33.2/lib/gcc/mips-openwrt-linux-uclibc/4.6.4/../../../../mips-openwrt-linux-uclibc/lib/crti.o
 .reginfo       0x0000000000000000       0x18 /home/shizhai/new_zhongwang/trunk/staging_dir/toolchain-mips_r2_gcc-4.6-linaro_uClibc-0.9.33.2/lib/gcc/mips-openwrt-linux-uclibc/4.6.4/../../../../mips-openwrt-linux-uclibc/lib/crti.o
 .pdr           0x0000000000000000       0x40 /home/shizhai/new_zhongwang/trunk/staging_dir/toolchain-mips_r2_gcc-4.6-linaro_uClibc-0.9.33.2/lib/gcc/mips-openwrt-linux-uclibc/4.6.4/../../../../mips-openwrt-linux-uclibc/lib/crti.o
 .note.GNU-stack
                0x0000000000000000        0x0 /home/shizhai/new_zhongwang/trunk/staging_dir/toolchain-mips_r2_gcc-4.6-linaro_uClibc-0.9.33.2/lib/gcc/mips-openwrt-linux-uclibc/4.6.4/../../../../mips-openwrt-linux-uclibc/lib/crti.o
 .data          0x0000000000000000        0x0 /home/shizhai/new_zhongwang/trunk/staging_dir/toolchain-mips_r2_gcc-4.6-linaro_uClibc-0.9.33.2/lib/gcc/mips-openwrt-linux-uclibc/4.6.4/crtbegin.o
 .reginfo       0x0000000000000000       0x18 /home/shizhai/new_zhongwang/trunk/staging_dir/toolchain-mips_r2_gcc-4.6-linaro_uClibc-0.9.33.2/lib/gcc/mips-openwrt-linux-uclibc/4.6.4/crtbegin.o
 .reginfo       0x0000000000000000       0x18 applets/built-in.o
 .text          0x0000000000000000        0x0 applets/built-in.o
 .data          0x0000000000000000        0x0 applets/built-in.o
 .bss           0x0000000000000000        0x0 applets/built-in.o
 .text          0x0000000000000000        0x0 libbb/lib.a(appletlib.o)
 .data          0x0000000000000000        0x0 libbb/lib.a(appletlib.o)
 .bss           0x0000000000000000        0x0 libbb/lib.a(appletlib.o)
 .reginfo       0x0000000000000000       0x18 libbb/lib.a(appletlib.o)
 .pdr           0x0000000000000000       0xe0 libbb/lib.a(appletlib.o)
 .text          0x0000000000000000        0x0 libbb/lib.a(default_error_retval.o)
 .data          0x0000000000000000        0x0 libbb/lib.a(default_error_retval.o)
 .bss           0x0000000000000000        0x0 libbb/lib.a(default_error_retval.o)
 .reginfo       0x0000000000000000       0x18 libbb/lib.a(default_error_retval.o)
 .text          0x0000000000000000        0x0 libbb/lib.a(get_last_path_component.o)
 .data          0x0000000000000000        0x0 libbb/lib.a(get_last_path_component.o)
 .bss           0x0000000000000000        0x0 libbb/lib.a(get_last_path_component.o)
 .reginfo       0x0000000000000000       0x18 libbb/lib.a(get_last_path_component.o)
 .pdr           0x0000000000000000       0x60 libbb/lib.a(get_last_path_component.o)
 .text          0x0000000000000000        0x0 libbb/lib.a(last_char_is.o)
 .data          0x0000000000000000        0x0 libbb/lib.a(last_char_is.o)
 .bss           0x0000000000000000        0x0 libbb/lib.a(last_char_is.o)
 .reginfo       0x0000000000000000       0x18 libbb/lib.a(last_char_is.o)
 .pdr           0x0000000000000000       0x20 libbb/lib.a(last_char_is.o)
 .text          0x0000000000000000        0x0 libbb/lib.a(messages.o)
 .data          0x0000000000000000        0x0 libbb/lib.a(messages.o)
 .bss           0x0000000000000000        0x0 libbb/lib.a(messages.o)
 .reginfo       0x0000000000000000       0x18 libbb/lib.a(messages.o)
 .text          0x0000000000000000        0x0 libbb/lib.a(ptr_to_globals.o)
 .data          0x0000000000000000        0x0 libbb/lib.a(ptr_to_globals.o)
 .bss           0x0000000000000000        0x0 libbb/lib.a(ptr_to_globals.o)
 .reginfo       0x0000000000000000       0x18 libbb/lib.a(ptr_to_globals.o)
 .text          0x0000000000000000        0x0 libbb/lib.a(verror_msg.o)
 .data          0x0000000000000000        0x0 libbb/lib.a(verror_msg.o)
 .bss           0x0000000000000000        0x0 libbb/lib.a(verror_msg.o)
 .reginfo       0x0000000000000000       0x18 libbb/lib.a(verror_msg.o)
 .pdr           0x0000000000000000       0x60 libbb/lib.a(verror_msg.o)
 .text          0x0000000000000000        0x0 libbb/lib.a(xfunc_die.o)
 .data          0x0000000000000000        0x0 libbb/lib.a(xfunc_die.o)
 .bss           0x0000000000000000        0x0 libbb/lib.a(xfunc_die.o)
 .reginfo       0x0000000000000000       0x18 libbb/lib.a(xfunc_die.o)
 .pdr           0x0000000000000000       0x20 libbb/lib.a(xfunc_die.o)
 .text          0x0000000000000000        0x0 libbb/lib.a(xfuncs.o)
 .data          0x0000000000000000        0x0 libbb/lib.a(xfuncs.o)
 .bss           0x0000000000000000        0x0 libbb/lib.a(xfuncs.o)
 .reginfo       0x0000000000000000       0x18 libbb/lib.a(xfuncs.o)
 .pdr           0x0000000000000000      0x260 libbb/lib.a(xfuncs.o)
 .text          0x0000000000000000        0x0 libbb/lib.a(xfuncs_printf.o)
 .data          0x0000000000000000        0x0 libbb/lib.a(xfuncs_printf.o)
 .bss           0x0000000000000000        0x0 libbb/lib.a(xfuncs_printf.o)
 .reginfo       0x0000000000000000       0x18 libbb/lib.a(xfuncs_printf.o)
 .pdr           0x0000000000000000      0x680 libbb/lib.a(xfuncs_printf.o)
 .text.xopen_nonblocking
                0x0000000000000000        0x8 libbb/lib.a(xfuncs_printf.o)
 .text.rename_or_warn
                0x0000000000000000       0x58 libbb/lib.a(xfuncs_printf.o)
 .text.selinux_or_die
                0x0000000000000000       0x14 libbb/lib.a(xfuncs_printf.o)
 .text.xmalloc_ttyname
                0x0000000000000000       0x58 libbb/lib.a(xfuncs_printf.o)
 .text.generate_uuid
                0x0000000000000000       0xf4 libbb/lib.a(xfuncs_printf.o)
 .text          0x0000000000000000        0x0 libbb/lib.a(copyfd.o)
 .data          0x0000000000000000        0x0 libbb/lib.a(copyfd.o)
 .bss           0x0000000000000000        0x0 libbb/lib.a(copyfd.o)
 .reginfo       0x0000000000000000       0x18 libbb/lib.a(copyfd.o)
 .pdr           0x0000000000000000       0x80 libbb/lib.a(copyfd.o)
 .text          0x0000000000000000        0x0 libbb/lib.a(full_write.o)
 .data          0x0000000000000000        0x0 libbb/lib.a(full_write.o)
 .bss           0x0000000000000000        0x0 libbb/lib.a(full_write.o)
 .reginfo       0x0000000000000000       0x18 libbb/lib.a(full_write.o)
 .pdr           0x0000000000000000       0x20 libbb/lib.a(full_write.o)
 .text          0x0000000000000000        0x0 libbb/lib.a(perror_msg.o)
 .data          0x0000000000000000        0x0 libbb/lib.a(perror_msg.o)
 .bss           0x0000000000000000        0x0 libbb/lib.a(perror_msg.o)
 .reginfo       0x0000000000000000       0x18 libbb/lib.a(perror_msg.o)
 .pdr           0x0000000000000000       0x80 libbb/lib.a(perror_msg.o)
 .text          0x0000000000000000        0x0 libbb/lib.a(read.o)
 .data          0x0000000000000000        0x0 libbb/lib.a(read.o)
 .bss           0x0000000000000000        0x0 libbb/lib.a(read.o)
 .reginfo       0x0000000000000000       0x18 libbb/lib.a(read.o)
 .pdr           0x0000000000000000       0x80 libbb/lib.a(read.o)
 .text          0x0000000000000000        0x0 libbb/lib.a(safe_write.o)
 .data          0x0000000000000000        0x0 libbb/lib.a(safe_write.o)
 .bss           0x0000000000000000        0x0 libbb/lib.a(safe_write.o)
 .reginfo       0x0000000000000000       0x18 libbb/lib.a(safe_write.o)
 .pdr           0x0000000000000000       0x20 libbb/lib.a(safe_write.o)
 .text          0x0000000000000000        0x0 libbb/lib.a(time.o)
 .data          0x0000000000000000        0x0 libbb/lib.a(time.o)
 .bss           0x0000000000000000        0x0 libbb/lib.a(time.o)
 .reginfo       0x0000000000000000       0x18 libbb/lib.a(time.o)
 .pdr           0x0000000000000000       0xc0 libbb/lib.a(time.o)
 .text.monotonic_ns
                0x0000000000000000       0x58 libbb/lib.a(time.o)
 .text          0x0000000000000000        0x0 libbb/lib.a(bb_strtonum.o)
 .data          0x0000000000000000        0x0 libbb/lib.a(bb_strtonum.o)
 .bss           0x0000000000000000        0x0 libbb/lib.a(bb_strtonum.o)
 .reginfo       0x0000000000000000       0x18 libbb/lib.a(bb_strtonum.o)
 .pdr           0x0000000000000000       0xc0 libbb/lib.a(bb_strtonum.o)
 .text          0x0000000000000000        0x0 loginutils/lib.a(passwd.o)
 .data          0x0000000000000000        0x0 loginutils/lib.a(passwd.o)
 .bss           0x0000000000000000        0x0 loginutils/lib.a(passwd.o)
 .reginfo       0x0000000000000000       0x18 loginutils/lib.a(passwd.o)
 .pdr           0x0000000000000000       0x40 loginutils/lib.a(passwd.o)
 .text          0x0000000000000000        0x0 miscutils/lib.a(crond.o)
 .data          0x0000000000000000        0x0 miscutils/lib.a(crond.o)
 .bss           0x0000000000000000        0x0 miscutils/lib.a(crond.o)
 .reginfo       0x0000000000000000       0x18 miscutils/lib.a(crond.o)
 .pdr           0x0000000000000000      0x100 miscutils/lib.a(crond.o)
 .text          0x0000000000000000        0x0 miscutils/lib.a(crontab.o)
 .data          0x0000000000000000        0x0 miscutils/lib.a(crontab.o)
 .bss           0x0000000000000000        0x0 miscutils/lib.a(crontab.o)
 .reginfo       0x0000000000000000       0x18 miscutils/lib.a(crontab.o)
 .pdr           0x0000000000000000       0x60 miscutils/lib.a(crontab.o)
 .text          0x0000000000000000        0x0 miscutils/lib.a(less.o)
 .data          0x0000000000000000        0x0 miscutils/lib.a(less.o)
 .bss           0x0000000000000000        0x0 miscutils/lib.a(less.o)
 .reginfo       0x0000000000000000       0x18 miscutils/lib.a(less.o)
 .pdr           0x0000000000000000      0x2c0 miscutils/lib.a(less.o)
 .text          0x0000000000000000        0x0 miscutils/lib.a(lock.o)
 .data          0x0000000000000000        0x0 miscutils/lib.a(lock.o)
 .bss           0x0000000000000000        0x0 miscutils/lib.a(lock.o)
 .reginfo       0x0000000000000000       0x18 miscutils/lib.a(lock.o)
 .pdr           0x0000000000000000       0x40 miscutils/lib.a(lock.o)
 .text          0x0000000000000000        0x0 miscutils/lib.a(strings.o)
 .data          0x0000000000000000        0x0 miscutils/lib.a(strings.o)
 .bss           0x0000000000000000        0x0 miscutils/lib.a(strings.o)
 .reginfo       0x0000000000000000       0x18 miscutils/lib.a(strings.o)
 .pdr           0x0000000000000000       0x20 miscutils/lib.a(strings.o)
 .text          0x0000000000000000        0x0 miscutils/lib.a(time.o)
 .data          0x0000000000000000        0x0 miscutils/lib.a(time.o)
 .bss           0x0000000000000000        0x0 miscutils/lib.a(time.o)
 .reginfo       0x0000000000000000       0x18 miscutils/lib.a(time.o)
 .pdr           0x0000000000000000       0x60 miscutils/lib.a(time.o)
 .text          0x0000000000000000        0x0 modutils/lib.a(insmod.o)
 .data          0x0000000000000000        0x0 modutils/lib.a(insmod.o)
 .bss           0x0000000000000000        0x0 modutils/lib.a(insmod.o)
 .reginfo       0x0000000000000000       0x18 modutils/lib.a(insmod.o)
 .pdr           0x0000000000000000       0x60 modutils/lib.a(insmod.o)
 .text          0x0000000000000000        0x0 modutils/lib.a(lsmod.o)
 .data          0x0000000000000000        0x0 modutils/lib.a(lsmod.o)
 .bss           0x0000000000000000        0x0 modutils/lib.a(lsmod.o)
 .reginfo       0x0000000000000000       0x18 modutils/lib.a(lsmod.o)
 .pdr           0x0000000000000000       0x20 modutils/lib.a(lsmod.o)
 .text          0x0000000000000000        0x0 modutils/lib.a(modutils.o)
 .data          0x0000000000000000        0x0 modutils/lib.a(modutils.o)
 .bss           0x0000000000000000        0x0 modutils/lib.a(modutils.o)
 .reginfo       0x0000000000000000       0x18 modutils/lib.a(modutils.o)
 .pdr           0x0000000000000000      0x100 modutils/lib.a(modutils.o)
 .text.replace  0x0000000000000000       0x30 modutils/lib.a(modutils.o)
 .text.replace_underscores
                0x0000000000000000       0x30 modutils/lib.a(modutils.o)
 .text.string_to_llist
                0x0000000000000000       0x8c modutils/lib.a(modutils.o)
 .text          0x0000000000000000        0x0 modutils/lib.a(rmmod.o)
 .data          0x0000000000000000        0x0 modutils/lib.a(rmmod.o)
 .bss           0x0000000000000000        0x0 modutils/lib.a(rmmod.o)
 .reginfo       0x0000000000000000       0x18 modutils/lib.a(rmmod.o)
 .pdr           0x0000000000000000       0x20 modutils/lib.a(rmmod.o)
 .text          0x0000000000000000        0x0 networking/lib.a(arping.o)
 .data          0x0000000000000000        0x0 networking/lib.a(arping.o)
 .bss           0x0000000000000000        0x0 networking/lib.a(arping.o)
 .reginfo       0x0000000000000000       0x18 networking/lib.a(arping.o)
 .pdr           0x0000000000000000       0x60 networking/lib.a(arping.o)
 .text          0x0000000000000000        0x0 networking/lib.a(brctl.o)
 .data          0x0000000000000000        0x0 networking/lib.a(brctl.o)
 .bss           0x0000000000000000        0x0 networking/lib.a(brctl.o)
 .reginfo       0x0000000000000000       0x18 networking/lib.a(brctl.o)
 .pdr           0x0000000000000000       0x40 networking/lib.a(brctl.o)
 .text          0x0000000000000000        0x0 networking/lib.a(ifconfig.o)
 .data          0x0000000000000000        0x0 networking/lib.a(ifconfig.o)
 .bss           0x0000000000000000        0x0 networking/lib.a(ifconfig.o)
 .reginfo       0x0000000000000000       0x18 networking/lib.a(ifconfig.o)
 .pdr           0x0000000000000000       0x20 networking/lib.a(ifconfig.o)
 .text          0x0000000000000000        0x0 networking/lib.a(interface.o)
 .data          0x0000000000000000        0x0 networking/lib.a(interface.o)
 .bss           0x0000000000000000        0x0 networking/lib.a(interface.o)
 .reginfo       0x0000000000000000       0x18 networking/lib.a(interface.o)
 .pdr           0x0000000000000000      0x280 networking/lib.a(interface.o)
 .text.get_aftype
                0x0000000000000000       0x60 networking/lib.a(interface.o)
 .text.get_hwtype
                0x0000000000000000       0x60 networking/lib.a(interface.o)
 .text          0x0000000000000000        0x0 networking/lib.a(nc.o)
 .data          0x0000000000000000        0x0 networking/lib.a(nc.o)
 .bss           0x0000000000000000        0x0 networking/lib.a(nc.o)
 .reginfo       0x0000000000000000       0x18 networking/lib.a(nc.o)
 .pdr           0x0000000000000000       0x20 networking/lib.a(nc.o)
 .text          0x0000000000000000        0x0 networking/lib.a(netmsg.o)
 .data          0x0000000000000000        0x0 networking/lib.a(netmsg.o)
 .bss           0x0000000000000000        0x0 networking/lib.a(netmsg.o)
 .reginfo       0x0000000000000000       0x18 networking/lib.a(netmsg.o)
 .pdr           0x0000000000000000       0x20 networking/lib.a(netmsg.o)
 .text          0x0000000000000000        0x0 networking/lib.a(netstat.o)
 .data          0x0000000000000000        0x0 networking/lib.a(netstat.o)
 .bss           0x0000000000000000        0x0 networking/lib.a(netstat.o)
 .reginfo       0x0000000000000000       0x18 networking/lib.a(netstat.o)
 .pdr           0x0000000000000000      0x1c0 networking/lib.a(netstat.o)
 .text          0x0000000000000000        0x0 networking/lib.a(nslookup.o)
 .data          0x0000000000000000        0x0 networking/lib.a(nslookup.o)
 .bss           0x0000000000000000        0x0 networking/lib.a(nslookup.o)
 .reginfo       0x0000000000000000       0x18 networking/lib.a(nslookup.o)
 .pdr           0x0000000000000000       0x40 networking/lib.a(nslookup.o)
 .text          0x0000000000000000        0x0 networking/lib.a(ntpd.o)
 .data          0x0000000000000000        0x0 networking/lib.a(ntpd.o)
 .bss           0x0000000000000000        0x0 networking/lib.a(ntpd.o)
 .reginfo       0x0000000000000000       0x18 networking/lib.a(ntpd.o)
 .pdr           0x0000000000000000      0x2c0 networking/lib.a(ntpd.o)
 .text          0x0000000000000000        0x0 networking/lib.a(ping.o)
 .data          0x0000000000000000        0x0 networking/lib.a(ping.o)
 .bss           0x0000000000000000        0x0 networking/lib.a(ping.o)
 .reginfo       0x0000000000000000       0x18 networking/lib.a(ping.o)
 .pdr           0x0000000000000000      0x100 networking/lib.a(ping.o)
 .text          0x0000000000000000        0x0 networking/lib.a(route.o)
 .data          0x0000000000000000        0x0 networking/lib.a(route.o)
 .bss           0x0000000000000000        0x0 networking/lib.a(route.o)
 .reginfo       0x0000000000000000       0x18 networking/lib.a(route.o)
 .pdr           0x0000000000000000       0xe0 networking/lib.a(route.o)
 .text          0x0000000000000000        0x0 networking/lib.a(telnet.o)
 .data          0x0000000000000000        0x0 networking/lib.a(telnet.o)
 .bss           0x0000000000000000        0x0 networking/lib.a(telnet.o)
 .reginfo       0x0000000000000000       0x18 networking/lib.a(telnet.o)
 .pdr           0x0000000000000000      0x140 networking/lib.a(telnet.o)
 .text          0x0000000000000000        0x0 networking/lib.a(telnetd.o)
 .data          0x0000000000000000        0x0 networking/lib.a(telnetd.o)
 .bss           0x0000000000000000        0x0 networking/lib.a(telnetd.o)
 .reginfo       0x0000000000000000       0x18 networking/lib.a(telnetd.o)
 .pdr           0x0000000000000000       0x80 networking/lib.a(telnetd.o)
 .text          0x0000000000000000        0x0 networking/lib.a(traceroute.o)
 .data          0x0000000000000000        0x0 networking/lib.a(traceroute.o)
 .bss           0x0000000000000000        0x0 networking/lib.a(traceroute.o)
 .reginfo       0x0000000000000000       0x18 networking/lib.a(traceroute.o)
 .pdr           0x0000000000000000       0x20 networking/lib.a(traceroute.o)
 .text          0x0000000000000000        0x0 networking/lib.a(vconfig.o)
 .data          0x0000000000000000        0x0 networking/lib.a(vconfig.o)
 .bss           0x0000000000000000        0x0 networking/lib.a(vconfig.o)
 .reginfo       0x0000000000000000       0x18 networking/lib.a(vconfig.o)
 .pdr           0x0000000000000000       0x40 networking/lib.a(vconfig.o)
 .text          0x0000000000000000        0x0 networking/lib.a(wget.o)
 .data          0x0000000000000000        0x0 networking/lib.a(wget.o)
 .bss           0x0000000000000000        0x0 networking/lib.a(wget.o)
 .reginfo       0x0000000000000000       0x18 networking/lib.a(wget.o)
 .pdr           0x0000000000000000      0x140 networking/lib.a(wget.o)
 .text          0x0000000000000000        0x0 networking/udhcp/lib.a(dhcpc.o)
 .data          0x0000000000000000        0x0 networking/udhcp/lib.a(dhcpc.o)
 .bss           0x0000000000000000        0x0 networking/udhcp/lib.a(dhcpc.o)
 .reginfo       0x0000000000000000       0x18 networking/udhcp/lib.a(dhcpc.o)
 .pdr           0x0000000000000000      0x200 networking/udhcp/lib.a(dhcpc.o)
 .text          0x0000000000000000        0x0 networking/udhcp/lib.a(domain_codec.o)
 .data          0x0000000000000000        0x0 networking/udhcp/lib.a(domain_codec.o)
 .bss           0x0000000000000000        0x0 networking/udhcp/lib.a(domain_codec.o)
 .reginfo       0x0000000000000000       0x18 networking/udhcp/lib.a(domain_codec.o)
 .pdr           0x0000000000000000       0x40 networking/udhcp/lib.a(domain_codec.o)
 .text          0x0000000000000000        0x0 networking/udhcp/lib.a(packet.o)
 .data          0x0000000000000000        0x0 networking/udhcp/lib.a(packet.o)
 .bss           0x0000000000000000        0x0 networking/udhcp/lib.a(packet.o)
 .reginfo       0x0000000000000000       0x18 networking/udhcp/lib.a(packet.o)
 .pdr           0x0000000000000000       0xc0 networking/udhcp/lib.a(packet.o)
 .text          0x0000000000000000        0x0 networking/udhcp/lib.a(signalpipe.o)
 .data          0x0000000000000000        0x0 networking/udhcp/lib.a(signalpipe.o)
 .bss           0x0000000000000000        0x0 networking/udhcp/lib.a(signalpipe.o)
 .reginfo       0x0000000000000000       0x18 networking/udhcp/lib.a(signalpipe.o)
 .pdr           0x0000000000000000       0x80 networking/udhcp/lib.a(signalpipe.o)
 .text          0x0000000000000000        0x0 networking/udhcp/lib.a(socket.o)
 .data          0x0000000000000000        0x0 networking/udhcp/lib.a(socket.o)
 .bss           0x0000000000000000        0x0 networking/udhcp/lib.a(socket.o)
 .reginfo       0x0000000000000000       0x18 networking/udhcp/lib.a(socket.o)
 .pdr           0x0000000000000000       0x40 networking/udhcp/lib.a(socket.o)
 .text          0x0000000000000000        0x0 networking/udhcp/lib.a(common.o)
 .data          0x0000000000000000        0x0 networking/udhcp/lib.a(common.o)
 .bss           0x0000000000000000        0x0 networking/udhcp/lib.a(common.o)
 .reginfo       0x0000000000000000       0x18 networking/udhcp/lib.a(common.o)
 .pdr           0x0000000000000000      0x140 networking/udhcp/lib.a(common.o)
 .text          0x0000000000000000        0x0 procps/lib.a(free.o)
 .data          0x0000000000000000        0x0 procps/lib.a(free.o)
 .bss           0x0000000000000000        0x0 procps/lib.a(free.o)
 .reginfo       0x0000000000000000       0x18 procps/lib.a(free.o)
 .pdr           0x0000000000000000       0x40 procps/lib.a(free.o)
 .text          0x0000000000000000        0x0 procps/lib.a(kill.o)
 .data          0x0000000000000000        0x0 procps/lib.a(kill.o)
 .bss           0x0000000000000000        0x0 procps/lib.a(kill.o)
 .reginfo       0x0000000000000000       0x18 procps/lib.a(kill.o)
 .pdr           0x0000000000000000       0x20 procps/lib.a(kill.o)
 .text          0x0000000000000000        0x0 procps/lib.a(pgrep.o)
 .data          0x0000000000000000        0x0 procps/lib.a(pgrep.o)
 .bss           0x0000000000000000        0x0 procps/lib.a(pgrep.o)
 .reginfo       0x0000000000000000       0x18 procps/lib.a(pgrep.o)
 .pdr           0x0000000000000000       0x40 procps/lib.a(pgrep.o)
 .text          0x0000000000000000        0x0 procps/lib.a(pidof.o)
 .data          0x0000000000000000        0x0 procps/lib.a(pidof.o)
 .bss           0x0000000000000000        0x0 procps/lib.a(pidof.o)
 .reginfo       0x0000000000000000       0x18 procps/lib.a(pidof.o)
 .pdr           0x0000000000000000       0x20 procps/lib.a(pidof.o)
 .text          0x0000000000000000        0x0 procps/lib.a(ps.o)
 .data          0x0000000000000000        0x0 procps/lib.a(ps.o)
 .bss           0x0000000000000000        0x0 procps/lib.a(ps.o)
 .reginfo       0x0000000000000000       0x18 procps/lib.a(ps.o)
 .pdr           0x0000000000000000       0x20 procps/lib.a(ps.o)
 .text          0x0000000000000000        0x0 procps/lib.a(sysctl.o)
 .data          0x0000000000000000        0x0 procps/lib.a(sysctl.o)
 .bss           0x0000000000000000        0x0 procps/lib.a(sysctl.o)
 .reginfo       0x0000000000000000       0x18 procps/lib.a(sysctl.o)
 .pdr           0x0000000000000000       0x60 procps/lib.a(sysctl.o)
 .text          0x0000000000000000        0x0 procps/lib.a(top.o)
 .data          0x0000000000000000        0x0 procps/lib.a(top.o)
 .bss           0x0000000000000000        0x0 procps/lib.a(top.o)
 .reginfo       0x0000000000000000       0x18 procps/lib.a(top.o)
 .pdr           0x0000000000000000      0x120 procps/lib.a(top.o)
 .text          0x0000000000000000        0x0 procps/lib.a(uptime.o)
 .data          0x0000000000000000        0x0 procps/lib.a(uptime.o)
 .bss           0x0000000000000000        0x0 procps/lib.a(uptime.o)
 .reginfo       0x0000000000000000       0x18 procps/lib.a(uptime.o)
 .pdr           0x0000000000000000       0x20 procps/lib.a(uptime.o)
 .text          0x0000000000000000        0x0 shell/lib.a(ash.o)
 .data          0x0000000000000000        0x0 shell/lib.a(ash.o)
 .bss           0x0000000000000000        0x0 shell/lib.a(ash.o)
 .reginfo       0x0000000000000000       0x18 shell/lib.a(ash.o)
 .pdr           0x0000000000000000     0x1a60 shell/lib.a(ash.o)
 .text          0x0000000000000000        0x0 shell/lib.a(ash_ptr_hack.o)
 .data          0x0000000000000000        0x0 shell/lib.a(ash_ptr_hack.o)
 .bss           0x0000000000000000        0x0 shell/lib.a(ash_ptr_hack.o)
 .reginfo       0x0000000000000000       0x18 shell/lib.a(ash_ptr_hack.o)
 .text          0x0000000000000000        0x0 shell/lib.a(math.o)
 .data          0x0000000000000000        0x0 shell/lib.a(math.o)
 .bss           0x0000000000000000        0x0 shell/lib.a(math.o)
 .reginfo       0x0000000000000000       0x18 shell/lib.a(math.o)
 .pdr           0x0000000000000000       0xa0 shell/lib.a(math.o)
 .text          0x0000000000000000        0x0 shell/lib.a(shell_common.o)
 .data          0x0000000000000000        0x0 shell/lib.a(shell_common.o)
 .bss           0x0000000000000000        0x0 shell/lib.a(shell_common.o)
 .reginfo       0x0000000000000000       0x18 shell/lib.a(shell_common.o)
 .pdr           0x0000000000000000       0x80 shell/lib.a(shell_common.o)
 .text          0x0000000000000000        0x0 sysklogd/lib.a(syslogd_and_logger.o)
 .data          0x0000000000000000        0x0 sysklogd/lib.a(syslogd_and_logger.o)
 .bss           0x0000000000000000        0x0 sysklogd/lib.a(syslogd_and_logger.o)
 .reginfo       0x0000000000000000       0x18 sysklogd/lib.a(syslogd_and_logger.o)
 .pdr           0x0000000000000000       0x40 sysklogd/lib.a(syslogd_and_logger.o)
 .text          0x0000000000000000        0x0 util-linux/lib.a(dmesg.o)
 .data          0x0000000000000000        0x0 util-linux/lib.a(dmesg.o)
 .bss           0x0000000000000000        0x0 util-linux/lib.a(dmesg.o)
 .reginfo       0x0000000000000000       0x18 util-linux/lib.a(dmesg.o)
 .pdr           0x0000000000000000       0x20 util-linux/lib.a(dmesg.o)
 .text          0x0000000000000000        0x0 util-linux/lib.a(hexdump.o)
 .data          0x0000000000000000        0x0 util-linux/lib.a(hexdump.o)
 .bss           0x0000000000000000        0x0 util-linux/lib.a(hexdump.o)
 .reginfo       0x0000000000000000       0x18 util-linux/lib.a(hexdump.o)
 .pdr           0x0000000000000000       0x20 util-linux/lib.a(hexdump.o)
 .text          0x0000000000000000        0x0 util-linux/lib.a(hwclock.o)
 .data          0x0000000000000000        0x0 util-linux/lib.a(hwclock.o)
 .bss           0x0000000000000000        0x0 util-linux/lib.a(hwclock.o)
 .reginfo       0x0000000000000000       0x18 util-linux/lib.a(hwclock.o)
 .pdr           0x0000000000000000       0x40 util-linux/lib.a(hwclock.o)
 .text          0x0000000000000000        0x0 util-linux/lib.a(mkswap.o)
 .data          0x0000000000000000        0x0 util-linux/lib.a(mkswap.o)
 .bss           0x0000000000000000        0x0 util-linux/lib.a(mkswap.o)
 .reginfo       0x0000000000000000       0x18 util-linux/lib.a(mkswap.o)
 .pdr           0x0000000000000000       0x20 util-linux/lib.a(mkswap.o)
 .text          0x0000000000000000        0x0 util-linux/lib.a(mount.o)
 .data          0x0000000000000000        0x0 util-linux/lib.a(mount.o)
 .bss           0x0000000000000000        0x0 util-linux/lib.a(mount.o)
 .reginfo       0x0000000000000000       0x18 util-linux/lib.a(mount.o)
 .pdr           0x0000000000000000       0xa0 util-linux/lib.a(mount.o)
 .text          0x0000000000000000        0x0 util-linux/lib.a(pivot_root.o)
 .data          0x0000000000000000        0x0 util-linux/lib.a(pivot_root.o)
 .bss           0x0000000000000000        0x0 util-linux/lib.a(pivot_root.o)
 .reginfo       0x0000000000000000       0x18 util-linux/lib.a(pivot_root.o)
 .pdr           0x0000000000000000       0x20 util-linux/lib.a(pivot_root.o)
 .text          0x0000000000000000        0x0 util-linux/lib.a(swaponoff.o)
 .data          0x0000000000000000        0x0 util-linux/lib.a(swaponoff.o)
 .bss           0x0000000000000000        0x0 util-linux/lib.a(swaponoff.o)
 .reginfo       0x0000000000000000       0x18 util-linux/lib.a(swaponoff.o)
 .pdr           0x0000000000000000       0x40 util-linux/lib.a(swaponoff.o)
 .text          0x0000000000000000        0x0 util-linux/lib.a(switch_root.o)
 .data          0x0000000000000000        0x0 util-linux/lib.a(switch_root.o)
 .bss           0x0000000000000000        0x0 util-linux/lib.a(switch_root.o)
 .reginfo       0x0000000000000000       0x18 util-linux/lib.a(switch_root.o)
 .pdr           0x0000000000000000       0x40 util-linux/lib.a(switch_root.o)
 .text          0x0000000000000000        0x0 util-linux/lib.a(umount.o)
 .data          0x0000000000000000        0x0 util-linux/lib.a(umount.o)
 .bss           0x0000000000000000        0x0 util-linux/lib.a(umount.o)
 .reginfo       0x0000000000000000       0x18 util-linux/lib.a(umount.o)
 .pdr           0x0000000000000000       0x20 util-linux/lib.a(umount.o)
 .text          0x0000000000000000        0x0 archival/lib.a(bbunzip.o)
 .data          0x0000000000000000        0x0 archival/lib.a(bbunzip.o)
 .bss           0x0000000000000000        0x0 archival/lib.a(bbunzip.o)
 .reginfo       0x0000000000000000       0x18 archival/lib.a(bbunzip.o)
 .pdr           0x0000000000000000      0x120 archival/lib.a(bbunzip.o)
 .text          0x0000000000000000        0x0 archival/lib.a(gzip.o)
 .data          0x0000000000000000        0x0 archival/lib.a(gzip.o)
 .bss           0x0000000000000000        0x0 archival/lib.a(gzip.o)
 .reginfo       0x0000000000000000       0x18 archival/lib.a(gzip.o)
 .pdr           0x0000000000000000      0x260 archival/lib.a(gzip.o)
 .text          0x0000000000000000        0x0 archival/lib.a(tar.o)
 .data          0x0000000000000000        0x0 archival/lib.a(tar.o)
 .bss           0x0000000000000000        0x0 archival/lib.a(tar.o)
 .reginfo       0x0000000000000000       0x18 archival/lib.a(tar.o)
 .pdr           0x0000000000000000      0x160 archival/lib.a(tar.o)
 .text          0x0000000000000000        0x0 archival/libarchive/lib.a(data_extract_all.o)
 .data          0x0000000000000000        0x0 archival/libarchive/lib.a(data_extract_all.o)
 .bss           0x0000000000000000        0x0 archival/libarchive/lib.a(data_extract_all.o)
 .reginfo       0x0000000000000000       0x18 archival/libarchive/lib.a(data_extract_all.o)
 .pdr           0x0000000000000000       0x20 archival/libarchive/lib.a(data_extract_all.o)
 .text          0x0000000000000000        0x0 archival/libarchive/lib.a(data_extract_to_stdout.o)
 .data          0x0000000000000000        0x0 archival/libarchive/lib.a(data_extract_to_stdout.o)
 .bss           0x0000000000000000        0x0 archival/libarchive/lib.a(data_extract_to_stdout.o)
 .reginfo       0x0000000000000000       0x18 archival/libarchive/lib.a(data_extract_to_stdout.o)
 .pdr           0x0000000000000000       0x20 archival/libarchive/lib.a(data_extract_to_stdout.o)
 .text          0x0000000000000000        0x0 archival/libarchive/lib.a(data_skip.o)
 .data          0x0000000000000000        0x0 archival/libarchive/lib.a(data_skip.o)
 .bss           0x0000000000000000        0x0 archival/libarchive/lib.a(data_skip.o)
 .reginfo       0x0000000000000000       0x18 archival/libarchive/lib.a(data_skip.o)
 .pdr           0x0000000000000000       0x20 archival/libarchive/lib.a(data_skip.o)
 .text          0x0000000000000000        0x0 archival/libarchive/lib.a(decompress_bunzip2.o)
 .data          0x0000000000000000        0x0 archival/libarchive/lib.a(decompress_bunzip2.o)
 .bss           0x0000000000000000        0x0 archival/libarchive/lib.a(decompress_bunzip2.o)
 .reginfo       0x0000000000000000       0x18 archival/libarchive/lib.a(decompress_bunzip2.o)
 .pdr           0x0000000000000000       0xe0 archival/libarchive/lib.a(decompress_bunzip2.o)
 .text          0x0000000000000000        0x0 archival/libarchive/lib.a(decompress_unzip.o)
 .data          0x0000000000000000        0x0 archival/libarchive/lib.a(decompress_unzip.o)
 .bss           0x0000000000000000        0x0 archival/libarchive/lib.a(decompress_unzip.o)
 .reginfo       0x0000000000000000       0x18 archival/libarchive/lib.a(decompress_unzip.o)
 .pdr           0x0000000000000000      0x1e0 archival/libarchive/lib.a(decompress_unzip.o)
 .text.inflate_unzip
                0x0000000000000000       0xb0 archival/libarchive/lib.a(decompress_unzip.o)
 .text          0x0000000000000000        0x0 archival/libarchive/lib.a(filter_accept_reject_list.o)
 .data          0x0000000000000000        0x0 archival/libarchive/lib.a(filter_accept_reject_list.o)
 .bss           0x0000000000000000        0x0 archival/libarchive/lib.a(filter_accept_reject_list.o)
 .reginfo       0x0000000000000000       0x18 archival/libarchive/lib.a(filter_accept_reject_list.o)
 .pdr           0x0000000000000000       0x20 archival/libarchive/lib.a(filter_accept_reject_list.o)
 .text          0x0000000000000000        0x0 archival/libarchive/lib.a(find_list_entry.o)
 .data          0x0000000000000000        0x0 archival/libarchive/lib.a(find_list_entry.o)
 .bss           0x0000000000000000        0x0 archival/libarchive/lib.a(find_list_entry.o)
 .reginfo       0x0000000000000000       0x18 archival/libarchive/lib.a(find_list_entry.o)
 .pdr           0x0000000000000000       0x40 archival/libarchive/lib.a(find_list_entry.o)
 .text          0x0000000000000000        0x0 archival/libarchive/lib.a(get_header_tar.o)
 .data          0x0000000000000000        0x0 archival/libarchive/lib.a(get_header_tar.o)
 .bss           0x0000000000000000        0x0 archival/libarchive/lib.a(get_header_tar.o)
 .reginfo       0x0000000000000000       0x18 archival/libarchive/lib.a(get_header_tar.o)
 .pdr           0x0000000000000000       0x60 archival/libarchive/lib.a(get_header_tar.o)
 .text          0x0000000000000000        0x0 archival/libarchive/lib.a(get_header_tar_gz.o)
 .data          0x0000000000000000        0x0 archival/libarchive/lib.a(get_header_tar_gz.o)
 .bss           0x0000000000000000        0x0 archival/libarchive/lib.a(get_header_tar_gz.o)
 .reginfo       0x0000000000000000       0x18 archival/libarchive/lib.a(get_header_tar_gz.o)
 .pdr           0x0000000000000000       0x20 archival/libarchive/lib.a(get_header_tar_gz.o)
 .text          0x0000000000000000        0x0 archival/libarchive/lib.a(header_list.o)
 .data          0x0000000000000000        0x0 archival/libarchive/lib.a(header_list.o)
 .bss           0x0000000000000000        0x0 archival/libarchive/lib.a(header_list.o)
 .reginfo       0x0000000000000000       0x18 archival/libarchive/lib.a(header_list.o)
 .pdr           0x0000000000000000       0x20 archival/libarchive/lib.a(header_list.o)
 .text          0x0000000000000000        0x0 archival/libarchive/lib.a(header_verbose_list.o)
 .data          0x0000000000000000        0x0 archival/libarchive/lib.a(header_verbose_list.o)
 .bss           0x0000000000000000        0x0 archival/libarchive/lib.a(header_verbose_list.o)
 .reginfo       0x0000000000000000       0x18 archival/libarchive/lib.a(header_verbose_list.o)
 .pdr           0x0000000000000000       0x20 archival/libarchive/lib.a(header_verbose_list.o)
 .text          0x0000000000000000        0x0 archival/libarchive/lib.a(init_handle.o)
 .data          0x0000000000000000        0x0 archival/libarchive/lib.a(init_handle.o)
 .bss           0x0000000000000000        0x0 archival/libarchive/lib.a(init_handle.o)
 .reginfo       0x0000000000000000       0x18 archival/libarchive/lib.a(init_handle.o)
 .pdr           0x0000000000000000       0x20 archival/libarchive/lib.a(init_handle.o)
 .text          0x0000000000000000        0x0 archival/libarchive/lib.a(open_transformer.o)
 .data          0x0000000000000000        0x0 archival/libarchive/lib.a(open_transformer.o)
 .bss           0x0000000000000000        0x0 archival/libarchive/lib.a(open_transformer.o)
 .reginfo       0x0000000000000000       0x18 archival/libarchive/lib.a(open_transformer.o)
 .pdr           0x0000000000000000       0x20 archival/libarchive/lib.a(open_transformer.o)
 .text          0x0000000000000000        0x0 archival/libarchive/lib.a(seek_by_jump.o)
 .data          0x0000000000000000        0x0 archival/libarchive/lib.a(seek_by_jump.o)
 .bss           0x0000000000000000        0x0 archival/libarchive/lib.a(seek_by_jump.o)
 .reginfo       0x0000000000000000       0x18 archival/libarchive/lib.a(seek_by_jump.o)
 .pdr           0x0000000000000000       0x20 archival/libarchive/lib.a(seek_by_jump.o)
 .text          0x0000000000000000        0x0 archival/libarchive/lib.a(seek_by_read.o)
 .data          0x0000000000000000        0x0 archival/libarchive/lib.a(seek_by_read.o)
 .bss           0x0000000000000000        0x0 archival/libarchive/lib.a(seek_by_read.o)
 .reginfo       0x0000000000000000       0x18 archival/libarchive/lib.a(seek_by_read.o)
 .pdr           0x0000000000000000       0x20 archival/libarchive/lib.a(seek_by_read.o)
 .text          0x0000000000000000        0x0 archival/libarchive/lib.a(data_align.o)
 .data          0x0000000000000000        0x0 archival/libarchive/lib.a(data_align.o)
 .bss           0x0000000000000000        0x0 archival/libarchive/lib.a(data_align.o)
 .reginfo       0x0000000000000000       0x18 archival/libarchive/lib.a(data_align.o)
 .pdr           0x0000000000000000       0x20 archival/libarchive/lib.a(data_align.o)
 .text          0x0000000000000000        0x0 archival/libarchive/lib.a(filter_accept_all.o)
 .data          0x0000000000000000        0x0 archival/libarchive/lib.a(filter_accept_all.o)
 .bss           0x0000000000000000        0x0 archival/libarchive/lib.a(filter_accept_all.o)
 .reginfo       0x0000000000000000       0x18 archival/libarchive/lib.a(filter_accept_all.o)
 .pdr           0x0000000000000000       0x20 archival/libarchive/lib.a(filter_accept_all.o)
 .text          0x0000000000000000        0x0 archival/libarchive/lib.a(header_skip.o)
 .data          0x0000000000000000        0x0 archival/libarchive/lib.a(header_skip.o)
 .bss           0x0000000000000000        0x0 archival/libarchive/lib.a(header_skip.o)
 .reginfo       0x0000000000000000       0x18 archival/libarchive/lib.a(header_skip.o)
 .pdr           0x0000000000000000       0x20 archival/libarchive/lib.a(header_skip.o)
 .text          0x0000000000000000        0x0 console-tools/lib.a(clear.o)
 .data          0x0000000000000000        0x0 console-tools/lib.a(clear.o)
 .bss           0x0000000000000000        0x0 console-tools/lib.a(clear.o)
 .reginfo       0x0000000000000000       0x18 console-tools/lib.a(clear.o)
 .pdr           0x0000000000000000       0x20 console-tools/lib.a(clear.o)
 .text          0x0000000000000000        0x0 console-tools/lib.a(reset.o)
 .data          0x0000000000000000        0x0 console-tools/lib.a(reset.o)
 .bss           0x0000000000000000        0x0 console-tools/lib.a(reset.o)
 .reginfo       0x0000000000000000       0x18 console-tools/lib.a(reset.o)
 .pdr           0x0000000000000000       0x20 console-tools/lib.a(reset.o)
 .text          0x0000000000000000        0x0 coreutils/lib.a(basename.o)
 .data          0x0000000000000000        0x0 coreutils/lib.a(basename.o)
 .bss           0x0000000000000000        0x0 coreutils/lib.a(basename.o)
 .reginfo       0x0000000000000000       0x18 coreutils/lib.a(basename.o)
 .pdr           0x0000000000000000       0x20 coreutils/lib.a(basename.o)
 .text          0x0000000000000000        0x0 coreutils/lib.a(cat.o)
 .data          0x0000000000000000        0x0 coreutils/lib.a(cat.o)
 .bss           0x0000000000000000        0x0 coreutils/lib.a(cat.o)
 .reginfo       0x0000000000000000       0x18 coreutils/lib.a(cat.o)
 .pdr           0x0000000000000000       0x40 coreutils/lib.a(cat.o)
 .text          0x0000000000000000        0x0 coreutils/lib.a(chgrp.o)
 .data          0x0000000000000000        0x0 coreutils/lib.a(chgrp.o)
 .bss           0x0000000000000000        0x0 coreutils/lib.a(chgrp.o)
 .reginfo       0x0000000000000000       0x18 coreutils/lib.a(chgrp.o)
 .pdr           0x0000000000000000       0x20 coreutils/lib.a(chgrp.o)
 .text          0x0000000000000000        0x0 coreutils/lib.a(chmod.o)
 .data          0x0000000000000000        0x0 coreutils/lib.a(chmod.o)
 .bss           0x0000000000000000        0x0 coreutils/lib.a(chmod.o)
 .reginfo       0x0000000000000000       0x18 coreutils/lib.a(chmod.o)
 .pdr           0x0000000000000000       0x40 coreutils/lib.a(chmod.o)
 .text          0x0000000000000000        0x0 coreutils/lib.a(chown.o)
 .data          0x0000000000000000        0x0 coreutils/lib.a(chown.o)
 .bss           0x0000000000000000        0x0 coreutils/lib.a(chown.o)
 .reginfo       0x0000000000000000       0x18 coreutils/lib.a(chown.o)
 .pdr           0x0000000000000000       0x40 coreutils/lib.a(chown.o)
 .text          0x0000000000000000        0x0 coreutils/lib.a(chroot.o)
 .data          0x0000000000000000        0x0 coreutils/lib.a(chroot.o)
 .bss           0x0000000000000000        0x0 coreutils/lib.a(chroot.o)
 .reginfo       0x0000000000000000       0x18 coreutils/lib.a(chroot.o)
 .pdr           0x0000000000000000       0x20 coreutils/lib.a(chroot.o)
 .text          0x0000000000000000        0x0 coreutils/lib.a(cp.o)
 .data          0x0000000000000000        0x0 coreutils/lib.a(cp.o)
 .bss           0x0000000000000000        0x0 coreutils/lib.a(cp.o)
 .reginfo       0x0000000000000000       0x18 coreutils/lib.a(cp.o)
 .pdr           0x0000000000000000       0x20 coreutils/lib.a(cp.o)
 .text          0x0000000000000000        0x0 coreutils/lib.a(cut.o)
 .data          0x0000000000000000        0x0 coreutils/lib.a(cut.o)
 .bss           0x0000000000000000        0x0 coreutils/lib.a(cut.o)
 .reginfo       0x0000000000000000       0x18 coreutils/lib.a(cut.o)
 .pdr           0x0000000000000000       0x40 coreutils/lib.a(cut.o)
 .text          0x0000000000000000        0x0 coreutils/lib.a(date.o)
 .data          0x0000000000000000        0x0 coreutils/lib.a(date.o)
 .bss           0x0000000000000000        0x0 coreutils/lib.a(date.o)
 .reginfo       0x0000000000000000       0x18 coreutils/lib.a(date.o)
 .pdr           0x0000000000000000       0x40 coreutils/lib.a(date.o)
 .text          0x0000000000000000        0x0 coreutils/lib.a(dd.o)
 .data          0x0000000000000000        0x0 coreutils/lib.a(dd.o)
 .bss           0x0000000000000000        0x0 coreutils/lib.a(dd.o)
 .reginfo       0x0000000000000000       0x18 coreutils/lib.a(dd.o)
 .pdr           0x0000000000000000       0x80 coreutils/lib.a(dd.o)
 .text          0x0000000000000000        0x0 coreutils/lib.a(df.o)
 .data          0x0000000000000000        0x0 coreutils/lib.a(df.o)
 .bss           0x0000000000000000        0x0 coreutils/lib.a(df.o)
 .reginfo       0x0000000000000000       0x18 coreutils/lib.a(df.o)
 .pdr           0x0000000000000000       0x20 coreutils/lib.a(df.o)
 .text          0x0000000000000000        0x0 coreutils/lib.a(dirname.o)
 .data          0x0000000000000000        0x0 coreutils/lib.a(dirname.o)
 .bss           0x0000000000000000        0x0 coreutils/lib.a(dirname.o)
 .reginfo       0x0000000000000000       0x18 coreutils/lib.a(dirname.o)
 .pdr           0x0000000000000000       0x20 coreutils/lib.a(dirname.o)
 .text          0x0000000000000000        0x0 coreutils/lib.a(du.o)
 .data          0x0000000000000000        0x0 coreutils/lib.a(du.o)
 .bss           0x0000000000000000        0x0 coreutils/lib.a(du.o)
 .reginfo       0x0000000000000000       0x18 coreutils/lib.a(du.o)
 .pdr           0x0000000000000000       0x60 coreutils/lib.a(du.o)
 .text          0x0000000000000000        0x0 coreutils/lib.a(echo.o)
 .data          0x0000000000000000        0x0 coreutils/lib.a(echo.o)
 .bss           0x0000000000000000        0x0 coreutils/lib.a(echo.o)
 .reginfo       0x0000000000000000       0x18 coreutils/lib.a(echo.o)
 .pdr           0x0000000000000000       0x20 coreutils/lib.a(echo.o)
 .text          0x0000000000000000        0x0 coreutils/lib.a(env.o)
 .data          0x0000000000000000        0x0 coreutils/lib.a(env.o)
 .bss           0x0000000000000000        0x0 coreutils/lib.a(env.o)
 .reginfo       0x0000000000000000       0x18 coreutils/lib.a(env.o)
 .pdr           0x0000000000000000       0x20 coreutils/lib.a(env.o)
 .text          0x0000000000000000        0x0 coreutils/lib.a(expr.o)
 .data          0x0000000000000000        0x0 coreutils/lib.a(expr.o)
 .bss           0x0000000000000000        0x0 coreutils/lib.a(expr.o)
 .reginfo       0x0000000000000000       0x18 coreutils/lib.a(expr.o)
 .pdr           0x0000000000000000      0x220 coreutils/lib.a(expr.o)
 .text          0x0000000000000000        0x0 coreutils/lib.a(false.o)
 .data          0x0000000000000000        0x0 coreutils/lib.a(false.o)
 .bss           0x0000000000000000        0x0 coreutils/lib.a(false.o)
 .reginfo       0x0000000000000000       0x18 coreutils/lib.a(false.o)
 .pdr           0x0000000000000000       0x20 coreutils/lib.a(false.o)
 .text          0x0000000000000000        0x0 coreutils/lib.a(fsync.o)
 .data          0x0000000000000000        0x0 coreutils/lib.a(fsync.o)
 .bss           0x0000000000000000        0x0 coreutils/lib.a(fsync.o)
 .reginfo       0x0000000000000000       0x18 coreutils/lib.a(fsync.o)
 .pdr           0x0000000000000000       0x20 coreutils/lib.a(fsync.o)
 .text          0x0000000000000000        0x0 coreutils/lib.a(head.o)
 .data          0x0000000000000000        0x0 coreutils/lib.a(head.o)
 .bss           0x0000000000000000        0x0 coreutils/lib.a(head.o)
 .reginfo       0x0000000000000000       0x18 coreutils/lib.a(head.o)
 .pdr           0x0000000000000000       0x20 coreutils/lib.a(head.o)
 .text          0x0000000000000000        0x0 coreutils/lib.a(hostid.o)
 .data          0x0000000000000000        0x0 coreutils/lib.a(hostid.o)
 .bss           0x0000000000000000        0x0 coreutils/lib.a(hostid.o)
 .reginfo       0x0000000000000000       0x18 coreutils/lib.a(hostid.o)
 .pdr           0x0000000000000000       0x20 coreutils/lib.a(hostid.o)
 .text          0x0000000000000000        0x0 coreutils/lib.a(id.o)
 .data          0x0000000000000000        0x0 coreutils/lib.a(id.o)
 .bss           0x0000000000000000        0x0 coreutils/lib.a(id.o)
 .reginfo       0x0000000000000000       0x18 coreutils/lib.a(id.o)
 .pdr           0x0000000000000000       0xa0 coreutils/lib.a(id.o)
 .text          0x0000000000000000        0x0 coreutils/lib.a(ln.o)
 .data          0x0000000000000000        0x0 coreutils/lib.a(ln.o)
 .bss           0x0000000000000000        0x0 coreutils/lib.a(ln.o)
 .reginfo       0x0000000000000000       0x18 coreutils/lib.a(ln.o)
 .pdr           0x0000000000000000       0x20 coreutils/lib.a(ln.o)
 .text          0x0000000000000000        0x0 coreutils/lib.a(ls.o)
 .data          0x0000000000000000        0x0 coreutils/lib.a(ls.o)
 .bss           0x0000000000000000        0x0 coreutils/lib.a(ls.o)
 .reginfo       0x0000000000000000       0x18 coreutils/lib.a(ls.o)
 .pdr           0x0000000000000000      0x1c0 coreutils/lib.a(ls.o)
 .text          0x0000000000000000        0x0 coreutils/lib.a(md5_sha1_sum.o)
 .data          0x0000000000000000        0x0 coreutils/lib.a(md5_sha1_sum.o)
 .bss           0x0000000000000000        0x0 coreutils/lib.a(md5_sha1_sum.o)
 .reginfo       0x0000000000000000       0x18 coreutils/lib.a(md5_sha1_sum.o)
 .pdr           0x0000000000000000       0x40 coreutils/lib.a(md5_sha1_sum.o)
 .text          0x0000000000000000        0x0 coreutils/lib.a(mkdir.o)
 .data          0x0000000000000000        0x0 coreutils/lib.a(mkdir.o)
 .bss           0x0000000000000000        0x0 coreutils/lib.a(mkdir.o)
 .reginfo       0x0000000000000000       0x18 coreutils/lib.a(mkdir.o)
 .pdr           0x0000000000000000       0x20 coreutils/lib.a(mkdir.o)
 .text          0x0000000000000000        0x0 coreutils/lib.a(mkfifo.o)
 .data          0x0000000000000000        0x0 coreutils/lib.a(mkfifo.o)
 .bss           0x0000000000000000        0x0 coreutils/lib.a(mkfifo.o)
 .reginfo       0x0000000000000000       0x18 coreutils/lib.a(mkfifo.o)
 .pdr           0x0000000000000000       0x20 coreutils/lib.a(mkfifo.o)
 .text          0x0000000000000000        0x0 coreutils/lib.a(mknod.o)
 .data          0x0000000000000000        0x0 coreutils/lib.a(mknod.o)
 .bss           0x0000000000000000        0x0 coreutils/lib.a(mknod.o)
 .reginfo       0x0000000000000000       0x18 coreutils/lib.a(mknod.o)
 .pdr           0x0000000000000000       0x20 coreutils/lib.a(mknod.o)
 .text          0x0000000000000000        0x0 coreutils/lib.a(mv.o)
 .data          0x0000000000000000        0x0 coreutils/lib.a(mv.o)
 .bss           0x0000000000000000        0x0 coreutils/lib.a(mv.o)
 .reginfo       0x0000000000000000       0x18 coreutils/lib.a(mv.o)
 .pdr           0x0000000000000000       0x20 coreutils/lib.a(mv.o)
 .text          0x0000000000000000        0x0 coreutils/lib.a(nice.o)
 .data          0x0000000000000000        0x0 coreutils/lib.a(nice.o)
 .bss           0x0000000000000000        0x0 coreutils/lib.a(nice.o)
 .reginfo       0x0000000000000000       0x18 coreutils/lib.a(nice.o)
 .pdr           0x0000000000000000       0x20 coreutils/lib.a(nice.o)
 .text          0x0000000000000000        0x0 coreutils/lib.a(printf.o)
 .data          0x0000000000000000        0x0 coreutils/lib.a(printf.o)
 .bss           0x0000000000000000        0x0 coreutils/lib.a(printf.o)
 .reginfo       0x0000000000000000       0x18 coreutils/lib.a(printf.o)
 .pdr           0x0000000000000000       0xe0 coreutils/lib.a(printf.o)
 .text          0x0000000000000000        0x0 coreutils/lib.a(pwd.o)
 .data          0x0000000000000000        0x0 coreutils/lib.a(pwd.o)
 .bss           0x0000000000000000        0x0 coreutils/lib.a(pwd.o)
 .reginfo       0x0000000000000000       0x18 coreutils/lib.a(pwd.o)
 .pdr           0x0000000000000000       0x20 coreutils/lib.a(pwd.o)
 .text          0x0000000000000000        0x0 coreutils/lib.a(readlink.o)
 .data          0x0000000000000000        0x0 coreutils/lib.a(readlink.o)
 .bss           0x0000000000000000        0x0 coreutils/lib.a(readlink.o)
 .reginfo       0x0000000000000000       0x18 coreutils/lib.a(readlink.o)
 .pdr           0x0000000000000000       0x20 coreutils/lib.a(readlink.o)
 .text          0x0000000000000000        0x0 coreutils/lib.a(rm.o)
 .data          0x0000000000000000        0x0 coreutils/lib.a(rm.o)
 .bss           0x0000000000000000        0x0 coreutils/lib.a(rm.o)
 .reginfo       0x0000000000000000       0x18 coreutils/lib.a(rm.o)
 .pdr           0x0000000000000000       0x20 coreutils/lib.a(rm.o)
 .text          0x0000000000000000        0x0 coreutils/lib.a(rmdir.o)
 .data          0x0000000000000000        0x0 coreutils/lib.a(rmdir.o)
 .bss           0x0000000000000000        0x0 coreutils/lib.a(rmdir.o)
 .reginfo       0x0000000000000000       0x18 coreutils/lib.a(rmdir.o)
 .pdr           0x0000000000000000       0x20 coreutils/lib.a(rmdir.o)
 .text          0x0000000000000000        0x0 coreutils/lib.a(seq.o)
 .data          0x0000000000000000        0x0 coreutils/lib.a(seq.o)
 .bss           0x0000000000000000        0x0 coreutils/lib.a(seq.o)
 .reginfo       0x0000000000000000       0x18 coreutils/lib.a(seq.o)
 .pdr           0x0000000000000000       0x20 coreutils/lib.a(seq.o)
 .text          0x0000000000000000        0x0 coreutils/lib.a(sleep.o)
 .data          0x0000000000000000        0x0 coreutils/lib.a(sleep.o)
 .bss           0x0000000000000000        0x0 coreutils/lib.a(sleep.o)
 .reginfo       0x0000000000000000       0x18 coreutils/lib.a(sleep.o)
 .pdr           0x0000000000000000       0x20 coreutils/lib.a(sleep.o)
 .text          0x0000000000000000        0x0 coreutils/lib.a(sort.o)
 .data          0x0000000000000000        0x0 coreutils/lib.a(sort.o)
 .bss           0x0000000000000000        0x0 coreutils/lib.a(sort.o)
 .reginfo       0x0000000000000000       0x18 coreutils/lib.a(sort.o)
 .pdr           0x0000000000000000       0x40 coreutils/lib.a(sort.o)
 .text          0x0000000000000000        0x0 coreutils/lib.a(sync.o)
 .data          0x0000000000000000        0x0 coreutils/lib.a(sync.o)
 .bss           0x0000000000000000        0x0 coreutils/lib.a(sync.o)
 .reginfo       0x0000000000000000       0x18 coreutils/lib.a(sync.o)
 .pdr           0x0000000000000000       0x20 coreutils/lib.a(sync.o)
 .text          0x0000000000000000        0x0 coreutils/lib.a(tail.o)
 .data          0x0000000000000000        0x0 coreutils/lib.a(tail.o)
 .bss           0x0000000000000000        0x0 coreutils/lib.a(tail.o)
 .reginfo       0x0000000000000000       0x18 coreutils/lib.a(tail.o)
 .pdr           0x0000000000000000       0x80 coreutils/lib.a(tail.o)
 .text          0x0000000000000000        0x0 coreutils/lib.a(tee.o)
 .data          0x0000000000000000        0x0 coreutils/lib.a(tee.o)
 .bss           0x0000000000000000        0x0 coreutils/lib.a(tee.o)
 .reginfo       0x0000000000000000       0x18 coreutils/lib.a(tee.o)
 .pdr           0x0000000000000000       0x20 coreutils/lib.a(tee.o)
 .text          0x0000000000000000        0x0 coreutils/lib.a(test.o)
 .data          0x0000000000000000        0x0 coreutils/lib.a(test.o)
 .bss           0x0000000000000000        0x0 coreutils/lib.a(test.o)
 .reginfo       0x0000000000000000       0x18 coreutils/lib.a(test.o)
 .pdr           0x0000000000000000      0x120 coreutils/lib.a(test.o)
 .text          0x0000000000000000        0x0 coreutils/lib.a(test_ptr_hack.o)
 .data          0x0000000000000000        0x0 coreutils/lib.a(test_ptr_hack.o)
 .bss           0x0000000000000000        0x0 coreutils/lib.a(test_ptr_hack.o)
 .reginfo       0x0000000000000000       0x18 coreutils/lib.a(test_ptr_hack.o)
 .text          0x0000000000000000        0x0 coreutils/lib.a(touch.o)
 .data          0x0000000000000000        0x0 coreutils/lib.a(touch.o)
 .bss           0x0000000000000000        0x0 coreutils/lib.a(touch.o)
 .reginfo       0x0000000000000000       0x18 coreutils/lib.a(touch.o)
 .pdr           0x0000000000000000       0x20 coreutils/lib.a(touch.o)
 .text          0x0000000000000000        0x0 coreutils/lib.a(tr.o)
 .data          0x0000000000000000        0x0 coreutils/lib.a(tr.o)
 .bss           0x0000000000000000        0x0 coreutils/lib.a(tr.o)
 .reginfo       0x0000000000000000       0x18 coreutils/lib.a(tr.o)
 .pdr           0x0000000000000000       0x60 coreutils/lib.a(tr.o)
 .text          0x0000000000000000        0x0 coreutils/lib.a(true.o)
 .data          0x0000000000000000        0x0 coreutils/lib.a(true.o)
 .bss           0x0000000000000000        0x0 coreutils/lib.a(true.o)
 .reginfo       0x0000000000000000       0x18 coreutils/lib.a(true.o)
 .pdr           0x0000000000000000       0x20 coreutils/lib.a(true.o)
 .text          0x0000000000000000        0x0 coreutils/lib.a(uname.o)
 .data          0x0000000000000000        0x0 coreutils/lib.a(uname.o)
 .bss           0x0000000000000000        0x0 coreutils/lib.a(uname.o)
 .reginfo       0x0000000000000000       0x18 coreutils/lib.a(uname.o)
 .pdr           0x0000000000000000       0x20 coreutils/lib.a(uname.o)
 .text          0x0000000000000000        0x0 coreutils/lib.a(uniq.o)
 .data          0x0000000000000000        0x0 coreutils/lib.a(uniq.o)
 .bss           0x0000000000000000        0x0 coreutils/lib.a(uniq.o)
 .reginfo       0x0000000000000000       0x18 coreutils/lib.a(uniq.o)
 .pdr           0x0000000000000000       0x20 coreutils/lib.a(uniq.o)
 .text          0x0000000000000000        0x0 coreutils/lib.a(wc.o)
 .data          0x0000000000000000        0x0 coreutils/lib.a(wc.o)
 .bss           0x0000000000000000        0x0 coreutils/lib.a(wc.o)
 .reginfo       0x0000000000000000       0x18 coreutils/lib.a(wc.o)
 .pdr           0x0000000000000000       0x20 coreutils/lib.a(wc.o)
 .text          0x0000000000000000        0x0 coreutils/lib.a(yes.o)
 .data          0x0000000000000000        0x0 coreutils/lib.a(yes.o)
 .bss           0x0000000000000000        0x0 coreutils/lib.a(yes.o)
 .reginfo       0x0000000000000000       0x18 coreutils/lib.a(yes.o)
 .pdr           0x0000000000000000       0x20 coreutils/lib.a(yes.o)
 .text          0x0000000000000000        0x0 coreutils/libcoreutils/lib.a(cp_mv_stat.o)
 .data          0x0000000000000000        0x0 coreutils/libcoreutils/lib.a(cp_mv_stat.o)
 .bss           0x0000000000000000        0x0 coreutils/libcoreutils/lib.a(cp_mv_stat.o)
 .reginfo       0x0000000000000000       0x18 coreutils/libcoreutils/lib.a(cp_mv_stat.o)
 .pdr           0x0000000000000000       0x40 coreutils/libcoreutils/lib.a(cp_mv_stat.o)
 .text          0x0000000000000000        0x0 coreutils/libcoreutils/lib.a(getopt_mk_fifo_nod.o)
 .data          0x0000000000000000        0x0 coreutils/libcoreutils/lib.a(getopt_mk_fifo_nod.o)
 .bss           0x0000000000000000        0x0 coreutils/libcoreutils/lib.a(getopt_mk_fifo_nod.o)
 .reginfo       0x0000000000000000       0x18 coreutils/libcoreutils/lib.a(getopt_mk_fifo_nod.o)
 .pdr           0x0000000000000000       0x20 coreutils/libcoreutils/lib.a(getopt_mk_fifo_nod.o)
 .text          0x0000000000000000        0x0 debianutils/lib.a(mktemp.o)
 .data          0x0000000000000000        0x0 debianutils/lib.a(mktemp.o)
 .bss           0x0000000000000000        0x0 debianutils/lib.a(mktemp.o)
 .reginfo       0x0000000000000000       0x18 debianutils/lib.a(mktemp.o)
 .pdr           0x0000000000000000       0x20 debianutils/lib.a(mktemp.o)
 .text          0x0000000000000000        0x0 debianutils/lib.a(start_stop_daemon.o)
 .data          0x0000000000000000        0x0 debianutils/lib.a(start_stop_daemon.o)
 .bss           0x0000000000000000        0x0 debianutils/lib.a(start_stop_daemon.o)
 .reginfo       0x0000000000000000       0x18 debianutils/lib.a(start_stop_daemon.o)
 .pdr           0x0000000000000000       0x40 debianutils/lib.a(start_stop_daemon.o)
 .text          0x0000000000000000        0x0 debianutils/lib.a(which.o)
 .data          0x0000000000000000        0x0 debianutils/lib.a(which.o)
 .bss           0x0000000000000000        0x0 debianutils/lib.a(which.o)
 .reginfo       0x0000000000000000       0x18 debianutils/lib.a(which.o)
 .pdr           0x0000000000000000       0x20 debianutils/lib.a(which.o)
 .text          0x0000000000000000        0x0 editors/lib.a(awk.o)
 .data          0x0000000000000000        0x0 editors/lib.a(awk.o)
 .bss           0x0000000000000000        0x0 editors/lib.a(awk.o)
 .reginfo       0x0000000000000000       0x18 editors/lib.a(awk.o)
 .pdr           0x0000000000000000      0x780 editors/lib.a(awk.o)
 .text          0x0000000000000000        0x0 editors/lib.a(cmp.o)
 .data          0x0000000000000000        0x0 editors/lib.a(cmp.o)
 .bss           0x0000000000000000        0x0 editors/lib.a(cmp.o)
 .reginfo       0x0000000000000000       0x18 editors/lib.a(cmp.o)
 .pdr           0x0000000000000000       0x20 editors/lib.a(cmp.o)
 .text          0x0000000000000000        0x0 editors/lib.a(sed.o)
 .data          0x0000000000000000        0x0 editors/lib.a(sed.o)
 .bss           0x0000000000000000        0x0 editors/lib.a(sed.o)
 .reginfo       0x0000000000000000       0x18 editors/lib.a(sed.o)
 .pdr           0x0000000000000000      0x220 editors/lib.a(sed.o)
 .text          0x0000000000000000        0x0 editors/lib.a(vi.o)
 .data          0x0000000000000000        0x0 editors/lib.a(vi.o)
 .bss           0x0000000000000000        0x0 editors/lib.a(vi.o)
 .reginfo       0x0000000000000000       0x18 editors/lib.a(vi.o)
 .pdr           0x0000000000000000      0x8e0 editors/lib.a(vi.o)
 .text          0x0000000000000000        0x0 findutils/lib.a(find.o)
 .data          0x0000000000000000        0x0 findutils/lib.a(find.o)
 .bss           0x0000000000000000        0x0 findutils/lib.a(find.o)
 .reginfo       0x0000000000000000       0x18 findutils/lib.a(find.o)
 .pdr           0x0000000000000000      0x260 findutils/lib.a(find.o)
 .text          0x0000000000000000        0x0 findutils/lib.a(grep.o)
 .data          0x0000000000000000        0x0 findutils/lib.a(grep.o)
 .bss           0x0000000000000000        0x0 findutils/lib.a(grep.o)
 .reginfo       0x0000000000000000       0x18 findutils/lib.a(grep.o)
 .pdr           0x0000000000000000       0xa0 findutils/lib.a(grep.o)
 .text          0x0000000000000000        0x0 findutils/lib.a(xargs.o)
 .data          0x0000000000000000        0x0 findutils/lib.a(xargs.o)
 .bss           0x0000000000000000        0x0 findutils/lib.a(xargs.o)
 .reginfo       0x0000000000000000       0x18 findutils/lib.a(xargs.o)
 .pdr           0x0000000000000000       0x80 findutils/lib.a(xargs.o)
 .text          0x0000000000000000        0x0 init/lib.a(halt.o)
 .data          0x0000000000000000        0x0 init/lib.a(halt.o)
 .bss           0x0000000000000000        0x0 init/lib.a(halt.o)
 .reginfo       0x0000000000000000       0x18 init/lib.a(halt.o)
 .pdr           0x0000000000000000       0x20 init/lib.a(halt.o)
 .text          0x0000000000000000        0x0 libbb/lib.a(ask_confirmation.o)
 .data          0x0000000000000000        0x0 libbb/lib.a(ask_confirmation.o)
 .bss           0x0000000000000000        0x0 libbb/lib.a(ask_confirmation.o)
 .reginfo       0x0000000000000000       0x18 libbb/lib.a(ask_confirmation.o)
 .pdr           0x0000000000000000       0x20 libbb/lib.a(ask_confirmation.o)
 .text          0x0000000000000000        0x0 libbb/lib.a(bb_askpass.o)
 .data          0x0000000000000000        0x0 libbb/lib.a(bb_askpass.o)
 .bss           0x0000000000000000        0x0 libbb/lib.a(bb_askpass.o)
 .reginfo       0x0000000000000000       0x18 libbb/lib.a(bb_askpass.o)
 .pdr           0x0000000000000000       0x60 libbb/lib.a(bb_askpass.o)
 .text          0x0000000000000000        0x0 libbb/lib.a(bb_do_delay.o)
 .data          0x0000000000000000        0x0 libbb/lib.a(bb_do_delay.o)
 .bss           0x0000000000000000        0x0 libbb/lib.a(bb_do_delay.o)
 .reginfo       0x0000000000000000       0x18 libbb/lib.a(bb_do_delay.o)
 .pdr           0x0000000000000000       0x20 libbb/lib.a(bb_do_delay.o)
 .text          0x0000000000000000        0x0 libbb/lib.a(bb_pwd.o)
 .data          0x0000000000000000        0x0 libbb/lib.a(bb_pwd.o)
 .bss           0x0000000000000000        0x0 libbb/lib.a(bb_pwd.o)
 .reginfo       0x0000000000000000       0x18 libbb/lib.a(bb_pwd.o)
 .pdr           0x0000000000000000      0x1a0 libbb/lib.a(bb_pwd.o)
 .text.xgetgrgid
                0x0000000000000000       0x38 libbb/lib.a(bb_pwd.o)
 .text.xgid2group
                0x0000000000000000       0x20 libbb/lib.a(bb_pwd.o)
 .text          0x0000000000000000        0x0 libbb/lib.a(change_identity.o)
 .data          0x0000000000000000        0x0 libbb/lib.a(change_identity.o)
 .bss           0x0000000000000000        0x0 libbb/lib.a(change_identity.o)
 .reginfo       0x0000000000000000       0x18 libbb/lib.a(change_identity.o)
 .pdr           0x0000000000000000       0x20 libbb/lib.a(change_identity.o)
 .text          0x0000000000000000        0x0 libbb/lib.a(compare_string_array.o)
 .data          0x0000000000000000        0x0 libbb/lib.a(compare_string_array.o)
 .bss           0x0000000000000000        0x0 libbb/lib.a(compare_string_array.o)
 .reginfo       0x0000000000000000       0x18 libbb/lib.a(compare_string_array.o)
 .pdr           0x0000000000000000       0x80 libbb/lib.a(compare_string_array.o)
 .text.index_in_str_array
                0x0000000000000000       0x64 libbb/lib.a(compare_string_array.o)
 .text.nth_string
                0x0000000000000000       0x4c libbb/lib.a(compare_string_array.o)
 .text          0x0000000000000000        0x0 libbb/lib.a(concat_path_file.o)
 .data          0x0000000000000000        0x0 libbb/lib.a(concat_path_file.o)
 .bss           0x0000000000000000        0x0 libbb/lib.a(concat_path_file.o)
 .reginfo       0x0000000000000000       0x18 libbb/lib.a(concat_path_file.o)
 .pdr           0x0000000000000000       0x20 libbb/lib.a(concat_path_file.o)
 .text          0x0000000000000000        0x0 libbb/lib.a(concat_subpath_file.o)
 .data          0x0000000000000000        0x0 libbb/lib.a(concat_subpath_file.o)
 .bss           0x0000000000000000        0x0 libbb/lib.a(concat_subpath_file.o)
 .reginfo       0x0000000000000000       0x18 libbb/lib.a(concat_subpath_file.o)
 .pdr           0x0000000000000000       0x20 libbb/lib.a(concat_subpath_file.o)
 .text          0x0000000000000000        0x0 libbb/lib.a(copy_file.o)
 .data          0x0000000000000000        0x0 libbb/lib.a(copy_file.o)
 .bss           0x0000000000000000        0x0 libbb/lib.a(copy_file.o)
 .reginfo       0x0000000000000000       0x18 libbb/lib.a(copy_file.o)
 .pdr           0x0000000000000000       0x40 libbb/lib.a(copy_file.o)
 .text          0x0000000000000000        0x0 libbb/lib.a(crc32.o)
 .data          0x0000000000000000        0x0 libbb/lib.a(crc32.o)
 .bss           0x0000000000000000        0x0 libbb/lib.a(crc32.o)
 .reginfo       0x0000000000000000       0x18 libbb/lib.a(crc32.o)
 .pdr           0x0000000000000000       0x60 libbb/lib.a(crc32.o)
 .text.crc32_block_endian1
                0x0000000000000000       0x3c libbb/lib.a(crc32.o)
 .text          0x0000000000000000        0x0 libbb/lib.a(create_icmp6_socket.o)
 .data          0x0000000000000000        0x0 libbb/lib.a(create_icmp6_socket.o)
 .bss           0x0000000000000000        0x0 libbb/lib.a(create_icmp6_socket.o)
 .reginfo       0x0000000000000000       0x18 libbb/lib.a(create_icmp6_socket.o)
 .pdr           0x0000000000000000       0x20 libbb/lib.a(create_icmp6_socket.o)
 .text          0x0000000000000000        0x0 libbb/lib.a(create_icmp_socket.o)
 .data          0x0000000000000000        0x0 libbb/lib.a(create_icmp_socket.o)
 .bss           0x0000000000000000        0x0 libbb/lib.a(create_icmp_socket.o)
 .reginfo       0x0000000000000000       0x18 libbb/lib.a(create_icmp_socket.o)
 .pdr           0x0000000000000000       0x20 libbb/lib.a(create_icmp_socket.o)
 .text          0x0000000000000000        0x0 libbb/lib.a(dump.o)
 .data          0x0000000000000000        0x0 libbb/lib.a(dump.o)
 .bss           0x0000000000000000        0x0 libbb/lib.a(dump.o)
 .reginfo       0x0000000000000000       0x18 libbb/lib.a(dump.o)
 .pdr           0x0000000000000000       0xc0 libbb/lib.a(dump.o)
 .text          0x0000000000000000        0x0 libbb/lib.a(execable.o)
 .data          0x0000000000000000        0x0 libbb/lib.a(execable.o)
 .bss           0x0000000000000000        0x0 libbb/lib.a(execable.o)
 .reginfo       0x0000000000000000       0x18 libbb/lib.a(execable.o)
 .pdr           0x0000000000000000       0xa0 libbb/lib.a(execable.o)
 .text.exists_execable
                0x0000000000000000       0x70 libbb/lib.a(execable.o)
 .text          0x0000000000000000        0x0 libbb/lib.a(fclose_nonstdin.o)
 .data          0x0000000000000000        0x0 libbb/lib.a(fclose_nonstdin.o)
 .bss           0x0000000000000000        0x0 libbb/lib.a(fclose_nonstdin.o)
 .reginfo       0x0000000000000000       0x18 libbb/lib.a(fclose_nonstdin.o)
 .pdr           0x0000000000000000       0x20 libbb/lib.a(fclose_nonstdin.o)
 .text          0x0000000000000000        0x0 libbb/lib.a(fflush_stdout_and_exit.o)
 .data          0x0000000000000000        0x0 libbb/lib.a(fflush_stdout_and_exit.o)
 .bss           0x0000000000000000        0x0 libbb/lib.a(fflush_stdout_and_exit.o)
 .reginfo       0x0000000000000000       0x18 libbb/lib.a(fflush_stdout_and_exit.o)
 .pdr           0x0000000000000000       0x20 libbb/lib.a(fflush_stdout_and_exit.o)
 .text          0x0000000000000000        0x0 libbb/lib.a(fgets_str.o)
 .data          0x0000000000000000        0x0 libbb/lib.a(fgets_str.o)
 .bss           0x0000000000000000        0x0 libbb/lib.a(fgets_str.o)
 .reginfo       0x0000000000000000       0x18 libbb/lib.a(fgets_str.o)
 .pdr           0x0000000000000000       0x80 libbb/lib.a(fgets_str.o)
 .text.xmalloc_fgets_str_len
                0x0000000000000000       0x34 libbb/lib.a(fgets_str.o)
 .text.xmalloc_fgetline_str
                0x0000000000000000       0x2c libbb/lib.a(fgets_str.o)
 .text          0x0000000000000000        0x0 libbb/lib.a(find_mount_point.o)
 .data          0x0000000000000000        0x0 libbb/lib.a(find_mount_point.o)
 .bss           0x0000000000000000        0x0 libbb/lib.a(find_mount_point.o)
 .reginfo       0x0000000000000000       0x18 libbb/lib.a(find_mount_point.o)
 .pdr           0x0000000000000000       0x20 libbb/lib.a(find_mount_point.o)
 .text          0x0000000000000000        0x0 libbb/lib.a(find_pid_by_name.o)
 .data          0x0000000000000000        0x0 libbb/lib.a(find_pid_by_name.o)
 .bss           0x0000000000000000        0x0 libbb/lib.a(find_pid_by_name.o)
 .reginfo       0x0000000000000000       0x18 libbb/lib.a(find_pid_by_name.o)
 .pdr           0x0000000000000000       0x40 libbb/lib.a(find_pid_by_name.o)
 .text          0x0000000000000000        0x0 libbb/lib.a(get_line_from_file.o)
 .data          0x0000000000000000        0x0 libbb/lib.a(get_line_from_file.o)
 .bss           0x0000000000000000        0x0 libbb/lib.a(get_line_from_file.o)
 .reginfo       0x0000000000000000       0x18 libbb/lib.a(get_line_from_file.o)
 .pdr           0x0000000000000000       0x60 libbb/lib.a(get_line_from_file.o)
 .text.xmalloc_fgets
                0x0000000000000000       0x1c libbb/lib.a(get_line_from_file.o)
 .text          0x0000000000000000        0x0 libbb/lib.a(get_shell_name.o)
 .data          0x0000000000000000        0x0 libbb/lib.a(get_shell_name.o)
 .bss           0x0000000000000000        0x0 libbb/lib.a(get_shell_name.o)
 .reginfo       0x0000000000000000       0x18 libbb/lib.a(get_shell_name.o)
 .pdr           0x0000000000000000       0x20 libbb/lib.a(get_shell_name.o)
 .text          0x0000000000000000        0x0 libbb/lib.a(get_volsize.o)
 .data          0x0000000000000000        0x0 libbb/lib.a(get_volsize.o)
 .bss           0x0000000000000000        0x0 libbb/lib.a(get_volsize.o)
 .reginfo       0x0000000000000000       0x18 libbb/lib.a(get_volsize.o)
 .pdr           0x0000000000000000       0x20 libbb/lib.a(get_volsize.o)
 .text          0x0000000000000000        0x0 libbb/lib.a(getopt32.o)
 .data          0x0000000000000000        0x0 libbb/lib.a(getopt32.o)
 .bss           0x0000000000000000        0x0 libbb/lib.a(getopt32.o)
 .reginfo       0x0000000000000000       0x18 libbb/lib.a(getopt32.o)
 .pdr           0x0000000000000000       0x20 libbb/lib.a(getopt32.o)
 .text          0x0000000000000000        0x0 libbb/lib.a(getpty.o)
 .data          0x0000000000000000        0x0 libbb/lib.a(getpty.o)
 .bss           0x0000000000000000        0x0 libbb/lib.a(getpty.o)
 .reginfo       0x0000000000000000       0x18 libbb/lib.a(getpty.o)
 .pdr           0x0000000000000000       0x20 libbb/lib.a(getpty.o)
 .text          0x0000000000000000        0x0 libbb/lib.a(hash_md5_sha.o)
 .data          0x0000000000000000        0x0 libbb/lib.a(hash_md5_sha.o)
 .bss           0x0000000000000000        0x0 libbb/lib.a(hash_md5_sha.o)
 .reginfo       0x0000000000000000       0x18 libbb/lib.a(hash_md5_sha.o)
 .pdr           0x0000000000000000      0x1c0 libbb/lib.a(hash_md5_sha.o)
 .text.sha1_process_block64
                0x0000000000000000      0x1f8 libbb/lib.a(hash_md5_sha.o)
 .text.sha256_process_block64
                0x0000000000000000      0x1f4 libbb/lib.a(hash_md5_sha.o)
 .text.sha512_process_block128
                0x0000000000000000      0x52c libbb/lib.a(hash_md5_sha.o)
 .text.sha1_begin
                0x0000000000000000       0x5c libbb/lib.a(hash_md5_sha.o)
 .text.sha256_begin
                0x0000000000000000       0x40 libbb/lib.a(hash_md5_sha.o)
 .text.sha512_begin
                0x0000000000000000       0x44 libbb/lib.a(hash_md5_sha.o)
 .text.sha512_hash
                0x0000000000000000       0xf0 libbb/lib.a(hash_md5_sha.o)
 .text.sha1_end
                0x0000000000000000       0x5c libbb/lib.a(hash_md5_sha.o)
 .text.sha512_end
                0x0000000000000000       0xe4 libbb/lib.a(hash_md5_sha.o)
 .rodata.rconsts.6980
                0x0000000000000000       0x10 libbb/lib.a(hash_md5_sha.o)
 .rodata.init256
                0x0000000000000000       0x28 libbb/lib.a(hash_md5_sha.o)
 .rodata.sha_K  0x0000000000000000      0x280 libbb/lib.a(hash_md5_sha.o)
 .rodata.init512_lo
                0x0000000000000000       0x28 libbb/lib.a(hash_md5_sha.o)
 .text          0x0000000000000000        0x0 libbb/lib.a(human_readable.o)
 .data          0x0000000000000000        0x0 libbb/lib.a(human_readable.o)
 .bss           0x0000000000000000        0x0 libbb/lib.a(human_readable.o)
 .reginfo       0x0000000000000000       0x18 libbb/lib.a(human_readable.o)
 .pdr           0x0000000000000000       0x60 libbb/lib.a(human_readable.o)
 .text.smart_ulltoa4
                0x0000000000000000      0x188 libbb/lib.a(human_readable.o)
 .text          0x0000000000000000        0x0 libbb/lib.a(inet_common.o)
 .data          0x0000000000000000        0x0 libbb/lib.a(inet_common.o)
 .bss           0x0000000000000000        0x0 libbb/lib.a(inet_common.o)
 .reginfo       0x0000000000000000       0x18 libbb/lib.a(inet_common.o)
 .pdr           0x0000000000000000       0x80 libbb/lib.a(inet_common.o)
 .text          0x0000000000000000        0x0 libbb/lib.a(info_msg.o)
 .data          0x0000000000000000        0x0 libbb/lib.a(info_msg.o)
 .bss           0x0000000000000000        0x0 libbb/lib.a(info_msg.o)
 .reginfo       0x0000000000000000       0x18 libbb/lib.a(info_msg.o)
 .pdr           0x0000000000000000       0x20 libbb/lib.a(info_msg.o)
 .text          0x0000000000000000        0x0 libbb/lib.a(inode_hash.o)
 .data          0x0000000000000000        0x0 libbb/lib.a(inode_hash.o)
 .bss           0x0000000000000000        0x0 libbb/lib.a(inode_hash.o)
 .reginfo       0x0000000000000000       0x18 libbb/lib.a(inode_hash.o)
 .pdr           0x0000000000000000       0x60 libbb/lib.a(inode_hash.o)
 .text          0x0000000000000000        0x0 libbb/lib.a(isdirectory.o)
 .data          0x0000000000000000        0x0 libbb/lib.a(isdirectory.o)
 .bss           0x0000000000000000        0x0 libbb/lib.a(isdirectory.o)
 .reginfo       0x0000000000000000       0x18 libbb/lib.a(isdirectory.o)
 .pdr           0x0000000000000000       0x20 libbb/lib.a(isdirectory.o)
 .text          0x0000000000000000        0x0 libbb/lib.a(lineedit.o)
 .data          0x0000000000000000        0x0 libbb/lib.a(lineedit.o)
 .bss           0x0000000000000000        0x0 libbb/lib.a(lineedit.o)
 .reginfo       0x0000000000000000       0x18 libbb/lib.a(lineedit.o)
 .pdr           0x0000000000000000      0x340 libbb/lib.a(lineedit.o)
 .text.size_from_HISTFILESIZE
                0x0000000000000000       0x48 libbb/lib.a(lineedit.o)
 .text          0x0000000000000000        0x0 libbb/lib.a(lineedit_ptr_hack.o)
 .data          0x0000000000000000        0x0 libbb/lib.a(lineedit_ptr_hack.o)
 .bss           0x0000000000000000        0x0 libbb/lib.a(lineedit_ptr_hack.o)
 .reginfo       0x0000000000000000       0x18 libbb/lib.a(lineedit_ptr_hack.o)
 .text          0x0000000000000000        0x0 libbb/lib.a(llist.o)
 .data          0x0000000000000000        0x0 libbb/lib.a(llist.o)
 .bss           0x0000000000000000        0x0 libbb/lib.a(llist.o)
 .reginfo       0x0000000000000000       0x18 libbb/lib.a(llist.o)
 .pdr           0x0000000000000000       0xe0 libbb/lib.a(llist.o)
 .text.llist_unlink
                0x0000000000000000       0x3c libbb/lib.a(llist.o)
 .text.llist_free
                0x0000000000000000       0x48 libbb/lib.a(llist.o)
 .text.llist_rev
                0x0000000000000000       0x28 libbb/lib.a(llist.o)
 .text.llist_find_str
                0x0000000000000000       0x50 libbb/lib.a(llist.o)
 .text          0x0000000000000000        0x0 libbb/lib.a(login.o)
 .data          0x0000000000000000        0x0 libbb/lib.a(login.o)
 .bss           0x0000000000000000        0x0 libbb/lib.a(login.o)
 .reginfo       0x0000000000000000       0x18 libbb/lib.a(login.o)
 .pdr           0x0000000000000000       0x60 libbb/lib.a(login.o)
 .text.print_login_prompt
                0x0000000000000000       0x58 libbb/lib.a(login.o)
 .text          0x0000000000000000        0x0 libbb/lib.a(loop.o)
 .data          0x0000000000000000        0x0 libbb/lib.a(loop.o)
 .bss           0x0000000000000000        0x0 libbb/lib.a(loop.o)
 .reginfo       0x0000000000000000       0x18 libbb/lib.a(loop.o)
 .pdr           0x0000000000000000       0x60 libbb/lib.a(loop.o)
 .text.query_loop
                0x0000000000000000       0x78 libbb/lib.a(loop.o)
 .text          0x0000000000000000        0x0 libbb/lib.a(make_directory.o)
 .data          0x0000000000000000        0x0 libbb/lib.a(make_directory.o)
 .bss           0x0000000000000000        0x0 libbb/lib.a(make_directory.o)
 .reginfo       0x0000000000000000       0x18 libbb/lib.a(make_directory.o)
 .pdr           0x0000000000000000       0x20 libbb/lib.a(make_directory.o)
 .text          0x0000000000000000        0x0 libbb/lib.a(makedev.o)
 .data          0x0000000000000000        0x0 libbb/lib.a(makedev.o)
 .bss           0x0000000000000000        0x0 libbb/lib.a(makedev.o)
 .reginfo       0x0000000000000000       0x18 libbb/lib.a(makedev.o)
 .pdr           0x0000000000000000       0x20 libbb/lib.a(makedev.o)
 .text          0x0000000000000000        0x0 libbb/lib.a(match_fstype.o)
 .data          0x0000000000000000        0x0 libbb/lib.a(match_fstype.o)
 .bss           0x0000000000000000        0x0 libbb/lib.a(match_fstype.o)
 .reginfo       0x0000000000000000       0x18 libbb/lib.a(match_fstype.o)
 .pdr           0x0000000000000000       0x20 libbb/lib.a(match_fstype.o)
 .text          0x0000000000000000        0x0 libbb/lib.a(mode_string.o)
 .data          0x0000000000000000        0x0 libbb/lib.a(mode_string.o)
 .bss           0x0000000000000000        0x0 libbb/lib.a(mode_string.o)
 .reginfo       0x0000000000000000       0x18 libbb/lib.a(mode_string.o)
 .pdr           0x0000000000000000       0x20 libbb/lib.a(mode_string.o)
 .text          0x0000000000000000        0x0 libbb/lib.a(obscure.o)
 .data          0x0000000000000000        0x0 libbb/lib.a(obscure.o)
 .bss           0x0000000000000000        0x0 libbb/lib.a(obscure.o)
 .reginfo       0x0000000000000000       0x18 libbb/lib.a(obscure.o)
 .pdr           0x0000000000000000       0x60 libbb/lib.a(obscure.o)
 .text          0x0000000000000000        0x0 libbb/lib.a(parse_config.o)
 .data          0x0000000000000000        0x0 libbb/lib.a(parse_config.o)
 .bss           0x0000000000000000        0x0 libbb/lib.a(parse_config.o)
 .reginfo       0x0000000000000000       0x18 libbb/lib.a(parse_config.o)
 .pdr           0x0000000000000000       0x80 libbb/lib.a(parse_config.o)
 .text          0x0000000000000000        0x0 libbb/lib.a(parse_mode.o)
 .data          0x0000000000000000        0x0 libbb/lib.a(parse_mode.o)
 .bss           0x0000000000000000        0x0 libbb/lib.a(parse_mode.o)
 .reginfo       0x0000000000000000       0x18 libbb/lib.a(parse_mode.o)
 .pdr           0x0000000000000000       0x20 libbb/lib.a(parse_mode.o)
 .text          0x0000000000000000        0x0 libbb/lib.a(percent_decode.o)
 .data          0x0000000000000000        0x0 libbb/lib.a(percent_decode.o)
 .bss           0x0000000000000000        0x0 libbb/lib.a(percent_decode.o)
 .reginfo       0x0000000000000000       0x18 libbb/lib.a(percent_decode.o)
 .pdr           0x0000000000000000       0x40 libbb/lib.a(percent_decode.o)
 .text          0x0000000000000000        0x0 libbb/lib.a(perror_nomsg_and_die.o)
 .data          0x0000000000000000        0x0 libbb/lib.a(perror_nomsg_and_die.o)
 .bss           0x0000000000000000        0x0 libbb/lib.a(perror_nomsg_and_die.o)
 .reginfo       0x0000000000000000       0x18 libbb/lib.a(perror_nomsg_and_die.o)
 .pdr           0x0000000000000000       0x20 libbb/lib.a(perror_nomsg_and_die.o)
 .text          0x0000000000000000        0x0 libbb/lib.a(pidfile.o)
 .data          0x0000000000000000        0x0 libbb/lib.a(pidfile.o)
 .bss           0x0000000000000000        0x0 libbb/lib.a(pidfile.o)
 .reginfo       0x0000000000000000       0x18 libbb/lib.a(pidfile.o)
 .pdr           0x0000000000000000       0x20 libbb/lib.a(pidfile.o)
 .text          0x0000000000000000        0x0 libbb/lib.a(printable.o)
 .data          0x0000000000000000        0x0 libbb/lib.a(printable.o)
 .bss           0x0000000000000000        0x0 libbb/lib.a(printable.o)
 .reginfo       0x0000000000000000       0x18 libbb/lib.a(printable.o)
 .pdr           0x0000000000000000       0x20 libbb/lib.a(printable.o)
 .text          0x0000000000000000        0x0 libbb/lib.a(printable_string.o)
 .data          0x0000000000000000        0x0 libbb/lib.a(printable_string.o)
 .bss           0x0000000000000000        0x0 libbb/lib.a(printable_string.o)
 .reginfo       0x0000000000000000       0x18 libbb/lib.a(printable_string.o)
 .pdr           0x0000000000000000       0x20 libbb/lib.a(printable_string.o)
 .text          0x0000000000000000        0x0 libbb/lib.a(process_escape_sequence.o)
 .data          0x0000000000000000        0x0 libbb/lib.a(process_escape_sequence.o)
 .bss           0x0000000000000000        0x0 libbb/lib.a(process_escape_sequence.o)
 .reginfo       0x0000000000000000       0x18 libbb/lib.a(process_escape_sequence.o)
 .pdr           0x0000000000000000       0x40 libbb/lib.a(process_escape_sequence.o)
 .text.strcpy_and_process_escape_sequences
                0x0000000000000000       0x6c libbb/lib.a(process_escape_sequence.o)
 .text          0x0000000000000000        0x0 libbb/lib.a(procps.o)
 .data          0x0000000000000000        0x0 libbb/lib.a(procps.o)
 .bss           0x0000000000000000        0x0 libbb/lib.a(procps.o)
 .reginfo       0x0000000000000000       0x18 libbb/lib.a(procps.o)
 .pdr           0x0000000000000000      0x160 libbb/lib.a(procps.o)
 .text          0x0000000000000000        0x0 libbb/lib.a(progress.o)
 .data          0x0000000000000000        0x0 libbb/lib.a(progress.o)
 .bss           0x0000000000000000        0x0 libbb/lib.a(progress.o)
 .reginfo       0x0000000000000000       0x18 libbb/lib.a(progress.o)
 .pdr           0x0000000000000000       0x40 libbb/lib.a(progress.o)
 .text          0x0000000000000000        0x0 libbb/lib.a(pw_encrypt.o)
 .data          0x0000000000000000        0x0 libbb/lib.a(pw_encrypt.o)
 .bss           0x0000000000000000        0x0 libbb/lib.a(pw_encrypt.o)
 .reginfo       0x0000000000000000       0x18 libbb/lib.a(pw_encrypt.o)
 .pdr           0x0000000000000000       0x80 libbb/lib.a(pw_encrypt.o)
 .text          0x0000000000000000        0x0 libbb/lib.a(read_key.o)
 .data          0x0000000000000000        0x0 libbb/lib.a(read_key.o)
 .bss           0x0000000000000000        0x0 libbb/lib.a(read_key.o)
 .reginfo       0x0000000000000000       0x18 libbb/lib.a(read_key.o)
 .pdr           0x0000000000000000       0x40 libbb/lib.a(read_key.o)
 .text.read_key_ungets
                0x0000000000000000       0x58 libbb/lib.a(read_key.o)
 .text          0x0000000000000000        0x0 libbb/lib.a(read_printf.o)
 .data          0x0000000000000000        0x0 libbb/lib.a(read_printf.o)
 .bss           0x0000000000000000        0x0 libbb/lib.a(read_printf.o)
 .reginfo       0x0000000000000000       0x18 libbb/lib.a(read_printf.o)
 .pdr           0x0000000000000000      0x140 libbb/lib.a(read_printf.o)
 .text.xmalloc_reads
                0x0000000000000000      0x13c libbb/lib.a(read_printf.o)
 .text.xmalloc_xopen_read_close
                0x0000000000000000       0x38 libbb/lib.a(read_printf.o)
 .text          0x0000000000000000        0x0 libbb/lib.a(recursive_action.o)
 .data          0x0000000000000000        0x0 libbb/lib.a(recursive_action.o)
 .bss           0x0000000000000000        0x0 libbb/lib.a(recursive_action.o)
 .reginfo       0x0000000000000000       0x18 libbb/lib.a(recursive_action.o)
 .pdr           0x0000000000000000       0x40 libbb/lib.a(recursive_action.o)
 .text          0x0000000000000000        0x0 libbb/lib.a(remove_file.o)
 .data          0x0000000000000000        0x0 libbb/lib.a(remove_file.o)
 .bss           0x0000000000000000        0x0 libbb/lib.a(remove_file.o)
 .reginfo       0x0000000000000000       0x18 libbb/lib.a(remove_file.o)
 .pdr           0x0000000000000000       0x20 libbb/lib.a(remove_file.o)
 .text          0x0000000000000000        0x0 libbb/lib.a(rtc.o)
 .data          0x0000000000000000        0x0 libbb/lib.a(rtc.o)
 .bss           0x0000000000000000        0x0 libbb/lib.a(rtc.o)
 .reginfo       0x0000000000000000       0x18 libbb/lib.a(rtc.o)
 .pdr           0x0000000000000000       0x80 libbb/lib.a(rtc.o)
 .text          0x0000000000000000        0x0 libbb/lib.a(safe_gethostname.o)
 .data          0x0000000000000000        0x0 libbb/lib.a(safe_gethostname.o)
 .bss           0x0000000000000000        0x0 libbb/lib.a(safe_gethostname.o)
 .reginfo       0x0000000000000000       0x18 libbb/lib.a(safe_gethostname.o)
 .pdr           0x0000000000000000       0x40 libbb/lib.a(safe_gethostname.o)
 .text.safe_getdomainname
                0x0000000000000000       0x38 libbb/lib.a(safe_gethostname.o)
 .text          0x0000000000000000        0x0 libbb/lib.a(safe_poll.o)
 .data          0x0000000000000000        0x0 libbb/lib.a(safe_poll.o)
 .bss           0x0000000000000000        0x0 libbb/lib.a(safe_poll.o)
 .reginfo       0x0000000000000000       0x18 libbb/lib.a(safe_poll.o)
 .pdr           0x0000000000000000       0x20 libbb/lib.a(safe_poll.o)
 .text          0x0000000000000000        0x0 libbb/lib.a(safe_strncpy.o)
 .data          0x0000000000000000        0x0 libbb/lib.a(safe_strncpy.o)
 .bss           0x0000000000000000        0x0 libbb/lib.a(safe_strncpy.o)
 .reginfo       0x0000000000000000       0x18 libbb/lib.a(safe_strncpy.o)
 .pdr           0x0000000000000000       0x40 libbb/lib.a(safe_strncpy.o)
 .text          0x0000000000000000        0x0 libbb/lib.a(setup_environment.o)
 .data          0x0000000000000000        0x0 libbb/lib.a(setup_environment.o)
 .bss           0x0000000000000000        0x0 libbb/lib.a(setup_environment.o)
 .reginfo       0x0000000000000000       0x18 libbb/lib.a(setup_environment.o)
 .pdr           0x0000000000000000       0x20 libbb/lib.a(setup_environment.o)
 .text          0x0000000000000000        0x0 libbb/lib.a(signals.o)
 .data          0x0000000000000000        0x0 libbb/lib.a(signals.o)
 .bss           0x0000000000000000        0x0 libbb/lib.a(signals.o)
 .reginfo       0x0000000000000000       0x18 libbb/lib.a(signals.o)
 .pdr           0x0000000000000000      0x160 libbb/lib.a(signals.o)
 .text.bb_signals_recursive_norestart
                0x0000000000000000       0x80 libbb/lib.a(signals.o)
 .text.sig_block
                0x0000000000000000       0x40 libbb/lib.a(signals.o)
 .text.wait_for_any_sig
                0x0000000000000000       0x2c libbb/lib.a(signals.o)
 .text.signal_no_SA_RESTART_empty_mask
                0x0000000000000000       0x38 libbb/lib.a(signals.o)
 .text          0x0000000000000000        0x0 libbb/lib.a(simplify_path.o)
 .data          0x0000000000000000        0x0 libbb/lib.a(simplify_path.o)
 .bss           0x0000000000000000        0x0 libbb/lib.a(simplify_path.o)
 .reginfo       0x0000000000000000       0x18 libbb/lib.a(simplify_path.o)
 .pdr           0x0000000000000000       0x40 libbb/lib.a(simplify_path.o)
 .text          0x0000000000000000        0x0 libbb/lib.a(single_argv.o)
 .data          0x0000000000000000        0x0 libbb/lib.a(single_argv.o)
 .bss           0x0000000000000000        0x0 libbb/lib.a(single_argv.o)
 .reginfo       0x0000000000000000       0x18 libbb/lib.a(single_argv.o)
 .pdr           0x0000000000000000       0x20 libbb/lib.a(single_argv.o)
 .text          0x0000000000000000        0x0 libbb/lib.a(skip_whitespace.o)
 .data          0x0000000000000000        0x0 libbb/lib.a(skip_whitespace.o)
 .bss           0x0000000000000000        0x0 libbb/lib.a(skip_whitespace.o)
 .reginfo       0x0000000000000000       0x18 libbb/lib.a(skip_whitespace.o)
 .pdr           0x0000000000000000       0x60 libbb/lib.a(skip_whitespace.o)
 .rodata.str1.4
                0x0000000000000000        0x8 libbb/lib.a(skip_whitespace.o)
 .text.skip_dev_pfx
                0x0000000000000000       0x3c libbb/lib.a(skip_whitespace.o)
 .text          0x0000000000000000        0x0 libbb/lib.a(str_tolower.o)
 .data          0x0000000000000000        0x0 libbb/lib.a(str_tolower.o)
 .bss           0x0000000000000000        0x0 libbb/lib.a(str_tolower.o)
 .reginfo       0x0000000000000000       0x18 libbb/lib.a(str_tolower.o)
 .pdr           0x0000000000000000       0x20 libbb/lib.a(str_tolower.o)
 .text          0x0000000000000000        0x0 libbb/lib.a(u_signal_names.o)
 .data          0x0000000000000000        0x0 libbb/lib.a(u_signal_names.o)
 .bss           0x0000000000000000        0x0 libbb/lib.a(u_signal_names.o)
 .reginfo       0x0000000000000000       0x18 libbb/lib.a(u_signal_names.o)
 .pdr           0x0000000000000000       0x60 libbb/lib.a(u_signal_names.o)
 .text          0x0000000000000000        0x0 libbb/lib.a(udp_io.o)
 .data          0x0000000000000000        0x0 libbb/lib.a(udp_io.o)
 .bss           0x0000000000000000        0x0 libbb/lib.a(udp_io.o)
 .reginfo       0x0000000000000000       0x18 libbb/lib.a(udp_io.o)
 .pdr           0x0000000000000000       0x60 libbb/lib.a(udp_io.o)
 .text          0x0000000000000000        0x0 libbb/lib.a(update_passwd.o)
 .data          0x0000000000000000        0x0 libbb/lib.a(update_passwd.o)
 .bss           0x0000000000000000        0x0 libbb/lib.a(update_passwd.o)
 .reginfo       0x0000000000000000       0x18 libbb/lib.a(update_passwd.o)
 .pdr           0x0000000000000000       0x20 libbb/lib.a(update_passwd.o)
 .text          0x0000000000000000        0x0 libbb/lib.a(uuencode.o)
 .data          0x0000000000000000        0x0 libbb/lib.a(uuencode.o)
 .bss           0x0000000000000000        0x0 libbb/lib.a(uuencode.o)
 .reginfo       0x0000000000000000       0x18 libbb/lib.a(uuencode.o)
 .pdr           0x0000000000000000       0x40 libbb/lib.a(uuencode.o)
 .rodata.str1.4
                0x0000000000000000       0x18 libbb/lib.a(uuencode.o)
 .text.read_base64
                0x0000000000000000      0x234 libbb/lib.a(uuencode.o)
 .rodata.bb_uuenc_tbl_std
                0x0000000000000000       0x41 libbb/lib.a(uuencode.o)
 .text          0x0000000000000000        0x0 libbb/lib.a(vfork_daemon_rexec.o)
 .data          0x0000000000000000        0x0 libbb/lib.a(vfork_daemon_rexec.o)
 .bss           0x0000000000000000        0x0 libbb/lib.a(vfork_daemon_rexec.o)
 .reginfo       0x0000000000000000       0x18 libbb/lib.a(vfork_daemon_rexec.o)
 .pdr           0x0000000000000000       0xc0 libbb/lib.a(vfork_daemon_rexec.o)
 .text.xspawn   0x0000000000000000       0x30 libbb/lib.a(vfork_daemon_rexec.o)
 .text          0x0000000000000000        0x0 libbb/lib.a(wfopen.o)
 .data          0x0000000000000000        0x0 libbb/lib.a(wfopen.o)
 .bss           0x0000000000000000        0x0 libbb/lib.a(wfopen.o)
 .reginfo       0x0000000000000000       0x18 libbb/lib.a(wfopen.o)
 .pdr           0x0000000000000000      0x100 libbb/lib.a(wfopen.o)
 .text.xfdopen_for_read
                0x0000000000000000        0x8 libbb/lib.a(wfopen.o)
 .text          0x0000000000000000        0x0 libbb/lib.a(wfopen_input.o)
 .data          0x0000000000000000        0x0 libbb/lib.a(wfopen_input.o)
 .bss           0x0000000000000000        0x0 libbb/lib.a(wfopen_input.o)
 .reginfo       0x0000000000000000       0x18 libbb/lib.a(wfopen_input.o)
 .pdr           0x0000000000000000       0x80 libbb/lib.a(wfopen_input.o)
 .text.xopen_stdin
                0x0000000000000000       0x28 libbb/lib.a(wfopen_input.o)
 .text          0x0000000000000000        0x0 libbb/lib.a(xatonum.o)
 .data          0x0000000000000000        0x0 libbb/lib.a(xatonum.o)
 .bss           0x0000000000000000        0x0 libbb/lib.a(xatonum.o)
 .reginfo       0x0000000000000000       0x18 libbb/lib.a(xatonum.o)
 .pdr           0x0000000000000000      0x400 libbb/lib.a(xatonum.o)
 .text.xstrtoull_range
                0x0000000000000000       0x2c libbb/lib.a(xatonum.o)
 .text.xstrtoull_sfx
                0x0000000000000000       0x34 libbb/lib.a(xatonum.o)
 .text.xstrtoull
                0x0000000000000000       0x34 libbb/lib.a(xatonum.o)
 .text.xatoull_range_sfx
                0x0000000000000000        0x8 libbb/lib.a(xatonum.o)
 .text.xatoull  0x0000000000000000        0x8 libbb/lib.a(xatonum.o)
 .text.xstrtoll_range_sfx
                0x0000000000000000      0x11c libbb/lib.a(xatonum.o)
 .text.xstrtoll_range
                0x0000000000000000       0x2c libbb/lib.a(xatonum.o)
 .text.xstrtoll
                0x0000000000000000       0x38 libbb/lib.a(xatonum.o)
 .text.xatoll_range_sfx
                0x0000000000000000        0x8 libbb/lib.a(xatonum.o)
 .text.xatoll_range
                0x0000000000000000       0x30 libbb/lib.a(xatonum.o)
 .text.xatoll_sfx
                0x0000000000000000       0x3c libbb/lib.a(xatonum.o)
 .text.xatoll   0x0000000000000000       0x3c libbb/lib.a(xatonum.o)
 .text.xstrtoul_range
                0x0000000000000000       0x1c libbb/lib.a(xatonum.o)
 .text.xstrtoul_sfx
                0x0000000000000000       0x24 libbb/lib.a(xatonum.o)
 .text.xstrtoul
                0x0000000000000000       0x24 libbb/lib.a(xatonum.o)
 .text.xstrtol_range
                0x0000000000000000       0x1c libbb/lib.a(xatonum.o)
 .text.xstrtol  0x0000000000000000       0x28 libbb/lib.a(xatonum.o)
 .text.xatol_range_sfx
                0x0000000000000000       0x30 libbb/lib.a(xatonum.o)
 .text.xatol_sfx
                0x0000000000000000       0x2c libbb/lib.a(xatonum.o)
 .text.xatol    0x0000000000000000       0x2c libbb/lib.a(xatonum.o)
 .text          0x0000000000000000        0x0 libbb/lib.a(xconnect.o)
 .data          0x0000000000000000        0x0 libbb/lib.a(xconnect.o)
 .bss           0x0000000000000000        0x0 libbb/lib.a(xconnect.o)
 .reginfo       0x0000000000000000       0x18 libbb/lib.a(xconnect.o)
 .pdr           0x0000000000000000      0x3a0 libbb/lib.a(xconnect.o)
 .text.get_peer_lsa
                0x0000000000000000        0xc libbb/lib.a(xconnect.o)
 .text.get_nport
                0x0000000000000000       0x2c libbb/lib.a(xconnect.o)
 .text.xsocket_stream
                0x0000000000000000        0xc libbb/lib.a(xconnect.o)
 .text.xmalloc_sockaddr2host
                0x0000000000000000        0x8 libbb/lib.a(xconnect.o)
 .text          0x0000000000000000        0x0 libbb/lib.a(xgetcwd.o)
 .data          0x0000000000000000        0x0 libbb/lib.a(xgetcwd.o)
 .bss           0x0000000000000000        0x0 libbb/lib.a(xgetcwd.o)
 .reginfo       0x0000000000000000       0x18 libbb/lib.a(xgetcwd.o)
 .pdr           0x0000000000000000       0x20 libbb/lib.a(xgetcwd.o)
 .text          0x0000000000000000        0x0 libbb/lib.a(xreadlink.o)
 .data          0x0000000000000000        0x0 libbb/lib.a(xreadlink.o)
 .bss           0x0000000000000000        0x0 libbb/lib.a(xreadlink.o)
 .reginfo       0x0000000000000000       0x18 libbb/lib.a(xreadlink.o)
 .pdr           0x0000000000000000       0x80 libbb/lib.a(xreadlink.o)
 .text          0x0000000000000000        0x0 libbb/lib.a(xrealloc_vector.o)
 .data          0x0000000000000000        0x0 libbb/lib.a(xrealloc_vector.o)
 .bss           0x0000000000000000        0x0 libbb/lib.a(xrealloc_vector.o)
 .reginfo       0x0000000000000000       0x18 libbb/lib.a(xrealloc_vector.o)
 .pdr           0x0000000000000000       0x20 libbb/lib.a(xrealloc_vector.o)
 .text          0x0000000000000000        0x0 libbb/lib.a(xregcomp.o)
 .data          0x0000000000000000        0x0 libbb/lib.a(xregcomp.o)
 .bss           0x0000000000000000        0x0 libbb/lib.a(xregcomp.o)
 .reginfo       0x0000000000000000       0x18 libbb/lib.a(xregcomp.o)
 .pdr           0x0000000000000000       0x40 libbb/lib.a(xregcomp.o)
 .text          0x0000000000000000        0x0 libbb/lib.a(bb_bswap_64.o)
 .data          0x0000000000000000        0x0 libbb/lib.a(bb_bswap_64.o)
 .bss           0x0000000000000000        0x0 libbb/lib.a(bb_bswap_64.o)
 .reginfo       0x0000000000000000       0x18 libbb/lib.a(bb_bswap_64.o)
 .pdr           0x0000000000000000       0x20 libbb/lib.a(bb_bswap_64.o)
 .text          0x0000000000000000        0x0 libbb/lib.a(bb_qsort.o)
 .data          0x0000000000000000        0x0 libbb/lib.a(bb_qsort.o)
 .bss           0x0000000000000000        0x0 libbb/lib.a(bb_qsort.o)
 .reginfo       0x0000000000000000       0x18 libbb/lib.a(bb_qsort.o)
 .pdr           0x0000000000000000       0x40 libbb/lib.a(bb_qsort.o)
 .text          0x0000000000000000        0x0 libbb/lib.a(perror_nomsg.o)
 .data          0x0000000000000000        0x0 libbb/lib.a(perror_nomsg.o)
 .bss           0x0000000000000000        0x0 libbb/lib.a(perror_nomsg.o)
 .reginfo       0x0000000000000000       0x18 libbb/lib.a(perror_nomsg.o)
 .pdr           0x0000000000000000       0x20 libbb/lib.a(perror_nomsg.o)
 .text          0x0000000000000000        0x0 libpwdgrp/lib.a(uidgid_get.o)
 .data          0x0000000000000000        0x0 libpwdgrp/lib.a(uidgid_get.o)
 .bss           0x0000000000000000        0x0 libpwdgrp/lib.a(uidgid_get.o)
 .reginfo       0x0000000000000000       0x18 libpwdgrp/lib.a(uidgid_get.o)
 .pdr           0x0000000000000000       0x60 libpwdgrp/lib.a(uidgid_get.o)
 .text          0x0000000000000000        0x0 /home/shizhai/new_zhongwang/trunk/staging_dir/toolchain-mips_r2_gcc-4.6-linaro_uClibc-0.9.33.2/lib/gcc/mips-openwrt-linux-uclibc/4.6.4/../../../../mips-openwrt-linux-uclibc/lib/uclibc_nonshared.a(atexit.os)
 .data          0x0000000000000000        0x0 /home/shizhai/new_zhongwang/trunk/staging_dir/toolchain-mips_r2_gcc-4.6-linaro_uClibc-0.9.33.2/lib/gcc/mips-openwrt-linux-uclibc/4.6.4/../../../../mips-openwrt-linux-uclibc/lib/uclibc_nonshared.a(atexit.os)
 .bss           0x0000000000000000        0x0 /home/shizhai/new_zhongwang/trunk/staging_dir/toolchain-mips_r2_gcc-4.6-linaro_uClibc-0.9.33.2/lib/gcc/mips-openwrt-linux-uclibc/4.6.4/../../../../mips-openwrt-linux-uclibc/lib/uclibc_nonshared.a(atexit.os)
 .reginfo       0x0000000000000000       0x18 /home/shizhai/new_zhongwang/trunk/staging_dir/toolchain-mips_r2_gcc-4.6-linaro_uClibc-0.9.33.2/lib/gcc/mips-openwrt-linux-uclibc/4.6.4/../../../../mips-openwrt-linux-uclibc/lib/uclibc_nonshared.a(atexit.os)
 .pdr           0x0000000000000000       0x20 /home/shizhai/new_zhongwang/trunk/staging_dir/toolchain-mips_r2_gcc-4.6-linaro_uClibc-0.9.33.2/lib/gcc/mips-openwrt-linux-uclibc/4.6.4/../../../../mips-openwrt-linux-uclibc/lib/uclibc_nonshared.a(atexit.os)
 .data          0x0000000000000000        0x0 /home/shizhai/new_zhongwang/trunk/staging_dir/toolchain-mips_r2_gcc-4.6-linaro_uClibc-0.9.33.2/lib/gcc/mips-openwrt-linux-uclibc/4.6.4/crtend.o
 .bss           0x0000000000000000        0x0 /home/shizhai/new_zhongwang/trunk/staging_dir/toolchain-mips_r2_gcc-4.6-linaro_uClibc-0.9.33.2/lib/gcc/mips-openwrt-linux-uclibc/4.6.4/crtend.o
 .reginfo       0x0000000000000000       0x18 /home/shizhai/new_zhongwang/trunk/staging_dir/toolchain-mips_r2_gcc-4.6-linaro_uClibc-0.9.33.2/lib/gcc/mips-openwrt-linux-uclibc/4.6.4/crtend.o
 .text          0x0000000000000000        0x0 /home/shizhai/new_zhongwang/trunk/staging_dir/toolchain-mips_r2_gcc-4.6-linaro_uClibc-0.9.33.2/lib/gcc/mips-openwrt-linux-uclibc/4.6.4/../../../../mips-openwrt-linux-uclibc/lib/crtn.o
 .data          0x0000000000000000        0x0 /home/shizhai/new_zhongwang/trunk/staging_dir/toolchain-mips_r2_gcc-4.6-linaro_uClibc-0.9.33.2/lib/gcc/mips-openwrt-linux-uclibc/4.6.4/../../../../mips-openwrt-linux-uclibc/lib/crtn.o
 .bss           0x0000000000000000        0x0 /home/shizhai/new_zhongwang/trunk/staging_dir/toolchain-mips_r2_gcc-4.6-linaro_uClibc-0.9.33.2/lib/gcc/mips-openwrt-linux-uclibc/4.6.4/../../../../mips-openwrt-linux-uclibc/lib/crtn.o
 .reginfo       0x0000000000000000       0x18 /home/shizhai/new_zhongwang/trunk/staging_dir/toolchain-mips_r2_gcc-4.6-linaro_uClibc-0.9.33.2/lib/gcc/mips-openwrt-linux-uclibc/4.6.4/../../../../mips-openwrt-linux-uclibc/lib/crtn.o
 .note.GNU-stack
                0x0000000000000000        0x0 /home/shizhai/new_zhongwang/trunk/staging_dir/toolchain-mips_r2_gcc-4.6-linaro_uClibc-0.9.33.2/lib/gcc/mips-openwrt-linux-uclibc/4.6.4/../../../../mips-openwrt-linux-uclibc/lib/crtn.o

Memory Configuration

Name             Origin             Length             Attributes
*default*        0x0000000000000000 0xffffffffffffffff

Linker script and memory map

LOAD /home/shizhai/new_zhongwang/trunk/staging_dir/toolchain-mips_r2_gcc-4.6-linaro_uClibc-0.9.33.2/lib/gcc/mips-openwrt-linux-uclibc/4.6.4/../../../../mips-openwrt-linux-uclibc/lib/crt1.o
LOAD /home/shizhai/new_zhongwang/trunk/staging_dir/toolchain-mips_r2_gcc-4.6-linaro_uClibc-0.9.33.2/lib/gcc/mips-openwrt-linux-uclibc/4.6.4/../../../../mips-openwrt-linux-uclibc/lib/crti.o
LOAD /home/shizhai/new_zhongwang/trunk/staging_dir/toolchain-mips_r2_gcc-4.6-linaro_uClibc-0.9.33.2/lib/gcc/mips-openwrt-linux-uclibc/4.6.4/crtbegin.o
START GROUP
LOAD applets/built-in.o
LOAD archival/lib.a
LOAD archival/libarchive/lib.a
LOAD console-tools/lib.a
LOAD coreutils/lib.a
LOAD coreutils/libcoreutils/lib.a
LOAD debianutils/lib.a
LOAD e2fsprogs/lib.a
LOAD editors/lib.a
LOAD findutils/lib.a
LOAD init/lib.a
LOAD libbb/lib.a
LOAD libpwdgrp/lib.a
LOAD loginutils/lib.a
LOAD mailutils/lib.a
LOAD miscutils/lib.a
LOAD modutils/lib.a
LOAD networking/lib.a
LOAD networking/libiproute/lib.a
LOAD networking/udhcp/lib.a
LOAD printutils/lib.a
LOAD procps/lib.a
LOAD runit/lib.a
LOAD selinux/lib.a
LOAD shell/lib.a
LOAD sysklogd/lib.a
LOAD util-linux/lib.a
LOAD util-linux/volume_id/lib.a
LOAD archival/built-in.o
LOAD archival/libarchive/built-in.o
LOAD console-tools/built-in.o
LOAD coreutils/built-in.o
LOAD coreutils/libcoreutils/built-in.o
LOAD debianutils/built-in.o
LOAD e2fsprogs/built-in.o
LOAD editors/built-in.o
LOAD findutils/built-in.o
LOAD init/built-in.o
LOAD libbb/built-in.o
LOAD libpwdgrp/built-in.o
LOAD loginutils/built-in.o
LOAD mailutils/built-in.o
LOAD miscutils/built-in.o
LOAD modutils/built-in.o
LOAD networking/built-in.o
LOAD networking/libiproute/built-in.o
LOAD networking/udhcp/built-in.o
LOAD printutils/built-in.o
LOAD procps/built-in.o
LOAD runit/built-in.o
LOAD selinux/built-in.o
LOAD shell/built-in.o
LOAD sysklogd/built-in.o
LOAD util-linux/built-in.o
LOAD util-linux/volume_id/built-in.o
END GROUP
START GROUP
LOAD /home/shizhai/new_zhongwang/trunk/staging_dir/toolchain-mips_r2_gcc-4.6-linaro_uClibc-0.9.33.2/lib/gcc/mips-openwrt-linux-uclibc/4.6.4/../../../../mips-openwrt-linux-uclibc/lib/libcrypt.so
LOAD /home/shizhai/new_zhongwang/trunk/staging_dir/toolchain-mips_r2_gcc-4.6-linaro_uClibc-0.9.33.2/lib/gcc/mips-openwrt-linux-uclibc/4.6.4/../../../../mips-openwrt-linux-uclibc/lib/libm.so
END GROUP
LOAD /home/shizhai/new_zhongwang/trunk/staging_dir/toolchain-mips_r2_gcc-4.6-linaro_uClibc-0.9.33.2/lib/gcc/mips-openwrt-linux-uclibc/4.6.4/../../../../mips-openwrt-linux-uclibc/lib/libgcc_s.so
LOAD /home/shizhai/new_zhongwang/trunk/staging_dir/toolchain-mips_r2_gcc-4.6-linaro_uClibc-0.9.33.2/lib/gcc/mips-openwrt-linux-uclibc/4.6.4/../../../../mips-openwrt-linux-uclibc/lib/libc.so
START GROUP
LOAD /home/shizhai/new_zhongwang/trunk/staging_dir/toolchain-mips_r2_gcc-4.6-linaro_uClibc-0.9.33.2/lib/gcc/mips-openwrt-linux-uclibc/4.6.4/../../../../mips-openwrt-linux-uclibc/lib/libc.so.0
LOAD /home/shizhai/new_zhongwang/trunk/staging_dir/toolchain-mips_r2_gcc-4.6-linaro_uClibc-0.9.33.2/lib/gcc/mips-openwrt-linux-uclibc/4.6.4/../../../../mips-openwrt-linux-uclibc/lib/uclibc_nonshared.a
LOAD /home/shizhai/new_zhongwang/trunk/staging_dir/toolchain-mips_r2_gcc-4.6-linaro_uClibc-0.9.33.2/lib/gcc/mips-openwrt-linux-uclibc/4.6.4/../../../../mips-openwrt-linux-uclibc/lib/ld-uClibc.so.0
END GROUP
LOAD /home/shizhai/new_zhongwang/trunk/staging_dir/toolchain-mips_r2_gcc-4.6-linaro_uClibc-0.9.33.2/lib/gcc/mips-openwrt-linux-uclibc/4.6.4/../../../../mips-openwrt-linux-uclibc/lib/libgcc_s.so
LOAD /home/shizhai/new_zhongwang/trunk/staging_dir/toolchain-mips_r2_gcc-4.6-linaro_uClibc-0.9.33.2/lib/gcc/mips-openwrt-linux-uclibc/4.6.4/crtend.o
LOAD /home/shizhai/new_zhongwang/trunk/staging_dir/toolchain-mips_r2_gcc-4.6-linaro_uClibc-0.9.33.2/lib/gcc/mips-openwrt-linux-uclibc/4.6.4/../../../../mips-openwrt-linux-uclibc/lib/crtn.o
                0x0000000000400000                PROVIDE (__executable_start, 0x400000)
                0x0000000000400114                . = (0x400000 + SIZEOF_HEADERS)

.interp         0x0000000000400114       0x14
 *(SORT(.interp))
 .interp        0x0000000000400114       0x14 /home/shizhai/new_zhongwang/trunk/staging_dir/toolchain-mips_r2_gcc-4.6-linaro_uClibc-0.9.33.2/lib/gcc/mips-openwrt-linux-uclibc/4.6.4/../../../../mips-openwrt-linux-uclibc/lib/crt1.o

.reginfo
 *(SORT(.reginfo))

.note.gnu.build-id
 *(SORT(.note.gnu.build-id))

.dynamic        0x0000000000400128      0x128
 *(SORT(.dynamic))
 .dynamic       0x0000000000400128      0x128 /home/shizhai/new_zhongwang/trunk/staging_dir/toolchain-mips_r2_gcc-4.6-linaro_uClibc-0.9.33.2/lib/gcc/mips-openwrt-linux-uclibc/4.6.4/../../../../mips-openwrt-linux-uclibc/lib/crt1.o
                0x0000000000400128                _DYNAMIC

.hash           0x0000000000400250      0x96c
 *(SORT(.hash))
 .hash          0x0000000000400250      0x96c /home/shizhai/new_zhongwang/trunk/staging_dir/toolchain-mips_r2_gcc-4.6-linaro_uClibc-0.9.33.2/lib/gcc/mips-openwrt-linux-uclibc/4.6.4/../../../../mips-openwrt-linux-uclibc/lib/crt1.o

.gnu.hash
 *(SORT(.gnu.hash))

.dynsym         0x0000000000400bbc     0x1520
 *(SORT(.dynsym))
 .dynsym        0x0000000000400bbc     0x1520 /home/shizhai/new_zhongwang/trunk/staging_dir/toolchain-mips_r2_gcc-4.6-linaro_uClibc-0.9.33.2/lib/gcc/mips-openwrt-linux-uclibc/4.6.4/../../../../mips-openwrt-linux-uclibc/lib/crt1.o

.dynstr         0x00000000004020dc      0xa80
 *(SORT(.dynstr))
 .dynstr        0x00000000004020dc      0xa80 /home/shizhai/new_zhongwang/trunk/staging_dir/toolchain-mips_r2_gcc-4.6-linaro_uClibc-0.9.33.2/lib/gcc/mips-openwrt-linux-uclibc/4.6.4/../../../../mips-openwrt-linux-uclibc/lib/crt1.o

.gnu.version    0x0000000000402b5c      0x2a4
 *(SORT(.gnu.version))
 .gnu.version   0x0000000000402b5c      0x2a4 /home/shizhai/new_zhongwang/trunk/staging_dir/toolchain-mips_r2_gcc-4.6-linaro_uClibc-0.9.33.2/lib/gcc/mips-openwrt-linux-uclibc/4.6.4/../../../../mips-openwrt-linux-uclibc/lib/crt1.o

.gnu.version_d  0x0000000000402e00        0x0
 *(SORT(.gnu.version_d))
 .gnu.version_d
                0x0000000000000000        0x0 /home/shizhai/new_zhongwang/trunk/staging_dir/toolchain-mips_r2_gcc-4.6-linaro_uClibc-0.9.33.2/lib/gcc/mips-openwrt-linux-uclibc/4.6.4/../../../../mips-openwrt-linux-uclibc/lib/crt1.o

.gnu.version_r  0x0000000000402e00       0x40
 *(SORT(.gnu.version_r))
 .gnu.version_r
                0x0000000000402e00       0x40 /home/shizhai/new_zhongwang/trunk/staging_dir/toolchain-mips_r2_gcc-4.6-linaro_uClibc-0.9.33.2/lib/gcc/mips-openwrt-linux-uclibc/4.6.4/../../../../mips-openwrt-linux-uclibc/lib/crt1.o

.rel.dyn        0x0000000000402e40       0x58
 *(SORT(.rel.init))
 *(SORT(.rel.text) SORT(.rel.text.*) SORT(.rel.gnu.linkonce.t.*))
 *(SORT(.rel.fini))
 *(SORT(.rel.rodata) SORT(.rel.rodata.*) SORT(.rel.gnu.linkonce.r.*))
 *(SORT(.rel.data.rel.ro*) SORT(.rel.gnu.linkonce.d.rel.ro.*))
 *(SORT(.rel.data) SORT(.rel.data.*) SORT(.rel.gnu.linkonce.d.*))
 *(SORT(.rel.tdata) SORT(.rel.tdata.*) SORT(.rel.gnu.linkonce.td.*))
 *(SORT(.rel.tbss) SORT(.rel.tbss.*) SORT(.rel.gnu.linkonce.tb.*))
 *(SORT(.rel.ctors))
 *(SORT(.rel.dtors))
 *(SORT(.rel.got))
 *(SORT(.rel.dyn))
 .rel.dyn       0x0000000000402e40       0x58 /home/shizhai/new_zhongwang/trunk/staging_dir/toolchain-mips_r2_gcc-4.6-linaro_uClibc-0.9.33.2/lib/gcc/mips-openwrt-linux-uclibc/4.6.4/../../../../mips-openwrt-linux-uclibc/lib/crt1.o
 *(SORT(.rel.sdata) SORT(.rel.sdata.*) SORT(.rel.gnu.linkonce.s.*))
 *(SORT(.rel.sbss) SORT(.rel.sbss.*) SORT(.rel.gnu.linkonce.sb.*))
 *(SORT(.rel.sdata2) SORT(.rel.sdata2.*) SORT(.rel.gnu.linkonce.s2.*))
 *(SORT(.rel.sbss2) SORT(.rel.sbss2.*) SORT(.rel.gnu.linkonce.sb2.*))
 *(SORT(.rel.bss) SORT(.rel.bss.*) SORT(.rel.gnu.linkonce.b.*))
 .rel.bss       0x0000000000000000        0x0 /home/shizhai/new_zhongwang/trunk/staging_dir/toolchain-mips_r2_gcc-4.6-linaro_uClibc-0.9.33.2/lib/gcc/mips-openwrt-linux-uclibc/4.6.4/../../../../mips-openwrt-linux-uclibc/lib/crt1.o
                0x0000000000402e98                PROVIDE (__rel_iplt_start, .)
 *(SORT(.rel.iplt))
                0x0000000000402e98                PROVIDE (__rel_iplt_end, .)
                0x0000000000402e98                PROVIDE (__rela_iplt_start, .)
                0x0000000000402e98                PROVIDE (__rela_iplt_end, .)

.rela.dyn       0x0000000000402e98        0x0
 *(SORT(.rela.init))
 *(SORT(.rela.text) SORT(.rela.text.*) SORT(.rela.gnu.linkonce.t.*))
 *(SORT(.rela.fini))
 *(SORT(.rela.rodata) SORT(.rela.rodata.*) SORT(.rela.gnu.linkonce.r.*))
 *(SORT(.rela.data) SORT(.rela.data.*) SORT(.rela.gnu.linkonce.d.*))
 *(SORT(.rela.tdata) SORT(.rela.tdata.*) SORT(.rela.gnu.linkonce.td.*))
 *(SORT(.rela.tbss) SORT(.rela.tbss.*) SORT(.rela.gnu.linkonce.tb.*))
 *(SORT(.rela.ctors))
 *(SORT(.rela.dtors))
 *(SORT(.rela.got))
 *(SORT(.rela.sdata) SORT(.rela.sdata.*) SORT(.rela.gnu.linkonce.s.*))
 *(SORT(.rela.sbss) SORT(.rela.sbss.*) SORT(.rela.gnu.linkonce.sb.*))
 *(SORT(.rela.sdata2) SORT(.rela.sdata2.*) SORT(.rela.gnu.linkonce.s2.*))
 *(SORT(.rela.sbss2) SORT(.rela.sbss2.*) SORT(.rela.gnu.linkonce.sb2.*))
 *(SORT(.rela.bss) SORT(.rela.bss.*) SORT(.rela.gnu.linkonce.b.*))
                0x0000000000402e98                PROVIDE (__rel_iplt_start, .)
                0x0000000000402e98                PROVIDE (__rel_iplt_end, .)
                0x0000000000402e98                PROVIDE (__rela_iplt_start, .)
 *(SORT(.rela.iplt))
                0x0000000000402e98                PROVIDE (__rela_iplt_end, .)

.rel.plt        0x0000000000402e98      0x9c0
 *(SORT(.rel.plt))
 .rel.plt       0x0000000000402e98      0x9c0 /home/shizhai/new_zhongwang/trunk/staging_dir/toolchain-mips_r2_gcc-4.6-linaro_uClibc-0.9.33.2/lib/gcc/mips-openwrt-linux-uclibc/4.6.4/../../../../mips-openwrt-linux-uclibc/lib/crt1.o

.rela.plt
 *(SORT(.rela.plt))

.init           0x0000000000403858       0x38
 *(SORT(.init))
 .init          0x0000000000403858       0x1c /home/shizhai/new_zhongwang/trunk/staging_dir/toolchain-mips_r2_gcc-4.6-linaro_uClibc-0.9.33.2/lib/gcc/mips-openwrt-linux-uclibc/4.6.4/../../../../mips-openwrt-linux-uclibc/lib/crti.o
                0x0000000000403858                _init
 .init          0x0000000000403874        0xc /home/shizhai/new_zhongwang/trunk/staging_dir/toolchain-mips_r2_gcc-4.6-linaro_uClibc-0.9.33.2/lib/gcc/mips-openwrt-linux-uclibc/4.6.4/../../../../mips-openwrt-linux-uclibc/lib/crtn.o
 .init          0x0000000000403880       0x10 /home/shizhai/new_zhongwang/trunk/staging_dir/toolchain-mips_r2_gcc-4.6-linaro_uClibc-0.9.33.2/lib/gcc/mips-openwrt-linux-uclibc/4.6.4/crtend.o

.plt            0x00000000004038a0     0x13a0
 *(SORT(.plt))
 *fill*         0x00000000004038a0        0x0 00
 .plt           0x00000000004038a0     0x13a0 /home/shizhai/new_zhongwang/trunk/staging_dir/toolchain-mips_r2_gcc-4.6-linaro_uClibc-0.9.33.2/lib/gcc/mips-openwrt-linux-uclibc/4.6.4/../../../../mips-openwrt-linux-uclibc/lib/crt1.o
                0x00000000004038a0                _PROCEDURE_LINKAGE_TABLE_
                0x00000000004038c0                longjmp
                0x00000000004038d0                stpcpy
                0x00000000004038e0                __umoddi3@@GLIBC_2.0
                0x00000000004038f0                chroot
                0x0000000000403900                strcpy
                0x0000000000403910                setrlimit64
                0x0000000000403920                unsetenv
                0x0000000000403930                log
                0x0000000000403940                mkstemp64
                0x0000000000403950                sqrt
                0x0000000000403960                waitpid
                0x0000000000403970                __divdi3@@GLIBC_2.0
                0x0000000000403980                ioctl
                0x0000000000403990                if_indextoname
                0x00000000004039a0                getgid
                0x00000000004039b0                popen
                0x00000000004039c0                sysconf
                0x00000000004039d0                printf
                0x00000000004039e0                vsprintf
                0x00000000004039f0                random
                0x0000000000403a00                getspnam_r
                0x0000000000403a10                __divdf3@@GCC_3.0
                0x0000000000403a20                recv
                0x0000000000403a30                connect
                0x0000000000403a40                ungetc
                0x0000000000403a50                utimes
                0x0000000000403a60                strerror
                0x0000000000403a70                memrchr
                0x0000000000403a80                geteuid
                0x0000000000403a90                inet_pton
                0x0000000000403aa0                stat64
                0x0000000000403ab0                memmove
                0x0000000000403ac0                pclose
                0x0000000000403ad0                getopt_long
                0x0000000000403ae0                snprintf
                0x0000000000403af0                __gedf2@@GCC_3.0
                0x0000000000403b00                mknod
                0x0000000000403b10                __gtdf2
                0x0000000000403b20                getgrgid
                0x0000000000403b30                times
                0x0000000000403b40                statfs64
                0x0000000000403b50                getenv
                0x0000000000403b60                fchmod
                0x0000000000403b70                getegid
                0x0000000000403b80                setlinebuf
                0x0000000000403b90                setpriority
                0x0000000000403ba0                getpriority
                0x0000000000403bb0                __subdf3@@GCC_3.0
                0x0000000000403bc0                bsearch
                0x0000000000403bd0                usleep
                0x0000000000403be0                execve
                0x0000000000403bf0                getpagesize
                0x0000000000403c00                getpid
                0x0000000000403c10                qsort
                0x0000000000403c20                fchown
                0x0000000000403c30                fscanf
                0x0000000000403c40                dirname
                0x0000000000403c50                fcntl64
                0x0000000000403c60                getrlimit64
                0x0000000000403c70                memcpy
                0x0000000000403c80                execl
                0x0000000000403c90                perror
                0x0000000000403ca0                readlink
                0x0000000000403cb0                puts
                0x0000000000403cc0                dup2
                0x0000000000403cd0                tcflush
                0x0000000000403ce0                getuid
                0x0000000000403cf0                system
                0x0000000000403d00                feof
                0x0000000000403d10                hasmntopt
                0x0000000000403d20                malloc
                0x0000000000403d30                isatty
                0x0000000000403d40                siglongjmp
                0x0000000000403d50                sleep
                0x0000000000403d60                sysinfo
                0x0000000000403d70                vsnprintf
                0x0000000000403d80                strtoll
                0x0000000000403d90                recvfrom
                0x0000000000403da0                pivot_root
                0x0000000000403db0                strtoul
                0x0000000000403dc0                gethostbyaddr
                0x0000000000403dd0                settimeofday
                0x0000000000403de0                rmdir
                0x0000000000403df0                socket
                0x0000000000403e00                select
                0x0000000000403e10                init_module
                0x0000000000403e20                lchown
                0x0000000000403e30                delete_module
                0x0000000000403e40                mempcpy
                0x0000000000403e50                fflush
                0x0000000000403e60                realpath
                0x0000000000403e70                putenv
                0x0000000000403e80                sigaddset
                0x0000000000403e90                clearenv
                0x0000000000403ea0                chown
                0x0000000000403eb0                strncasecmp
                0x0000000000403ec0                setpgid
                0x0000000000403ed0                freeaddrinfo
                0x0000000000403ee0                __fgetc_unlocked
                0x0000000000403ef0                gmtime_r
                0x0000000000403f00                chmod
                0x0000000000403f10                getnameinfo
                0x0000000000403f20                __floatunsidf@@GCC_4.2.0
                0x0000000000403f30                fstat64
                0x0000000000403f40                alarm
                0x0000000000403f50                strtol
                0x0000000000403f60                __sigsetjmp
                0x0000000000403f70                pipe
                0x0000000000403f80                getpgrp
                0x0000000000403f90                strnlen
                0x0000000000403fa0                uname
                0x0000000000403fb0                accept
                0x0000000000403fc0                rename
                0x0000000000403fd0                strrchr
                0x0000000000403fe0                strtod
                0x0000000000403ff0                gai_strerror
                0x0000000000404000                write
                0x0000000000404010                fdatasync
                0x0000000000404020                fprintf
                0x0000000000404030                kill
                0x0000000000404040                fputs_unlocked
                0x0000000000404050                ctime
                0x0000000000404060                __ledf2
                0x0000000000404070                strcat
                0x0000000000404080                bind
                0x0000000000404090                getmntent_r
                0x00000000004040a0                inet_addr
                0x00000000004040b0                vprintf
                0x00000000004040c0                umount2
                0x00000000004040d0                mkfifo
                0x00000000004040e0                if_nametoindex
                0x00000000004040f0                reboot
                0x0000000000404100                chdir
                0x0000000000404110                initgroups
                0x0000000000404120                endgrent
                0x0000000000404130                setsockopt
                0x0000000000404140                fseek
                0x0000000000404150                wait3
                0x0000000000404160                cos
                0x0000000000404170                memchr
                0x0000000000404180                swapoff
                0x0000000000404190                __eqdf2@@GCC_3.0
                0x00000000004041a0                __lshrdi3@@GCC_3.0
                0x00000000004041b0                umask
                0x00000000004041c0                __ashldi3@@GCC_3.0
                0x00000000004041d0                dprintf
                0x00000000004041e0                mktime
                0x00000000004041f0                strcasestr
                0x0000000000404200                ferror
                0x0000000000404210                strstr
                0x0000000000404220                unlockpt
                0x0000000000404230                sin
                0x0000000000404240                rand
                0x0000000000404250                flock
                0x0000000000404260                setgid
                0x0000000000404270                atan2
                0x0000000000404280                signal
                0x0000000000404290                read
                0x00000000004042a0                openlog
                0x00000000004042b0                sendmsg
                0x00000000004042c0                closelog
                0x00000000004042d0                strncmp
                0x00000000004042e0                __cmsg_nxthdr
                0x00000000004042f0                setpgrp
                0x0000000000404300                pow
                0x0000000000404310                strncpy
                0x0000000000404320                unlink
                0x0000000000404330                sync
                0x0000000000404340                setenv
                0x0000000000404350                freopen64
                0x0000000000404360                __floatsidf@@GCC_3.0
                0x0000000000404370                strcasecmp
                0x0000000000404380                sendto
                0x0000000000404390                realloc
                0x00000000004043a0                __udivdi3@@GLIBC_2.0
                0x00000000004043b0                readdir64
                0x00000000004043c0                strtok
                0x00000000004043d0                memcmp
                0x00000000004043e0                listen
                0x00000000004043f0                crypt
                0x0000000000404400                fdopen
                0x0000000000404410                fork
                0x0000000000404420                sscanf
                0x0000000000404430                execv
                0x0000000000404440                setmntent
                0x0000000000404450                __truncdfsf2@@GCC_3.0
                0x0000000000404460                lstat64
                0x0000000000404470                strncat
                0x0000000000404480                execlp
                0x0000000000404490                sigaction
                0x00000000004044a0                endmntent
                0x00000000004044b0                __res_init
                0x00000000004044c0                killpg
                0x00000000004044d0                fread
                0x00000000004044e0                ttyname_r
                0x00000000004044f0                strdup
                0x0000000000404500                inet_aton
                0x0000000000404510                strtoull
                0x0000000000404520                regcomp
                0x0000000000404530                symlink
                0x0000000000404540                gettimeofday
                0x0000000000404550                getopt
                0x0000000000404560                localtime
                0x0000000000404570                memset
                0x0000000000404580                fnmatch
                0x0000000000404590                cfmakeraw
                0x00000000004045a0                __muldf3@@GCC_3.0
                0x00000000004045b0                getsid
                0x00000000004045c0                ftell
                0x00000000004045d0                srand
                0x00000000004045e0                __ltdf2@@GCC_3.0
                0x00000000004045f0                clearerr
                0x0000000000404600                mallopt
                0x0000000000404610                fclose
                0x0000000000404620                grantpt
                0x0000000000404630                open64
                0x0000000000404640                inet_ntoa
                0x0000000000404650                getppid
                0x0000000000404660                tcgetattr
                0x0000000000404670                getservbyport
                0x0000000000404680                regexec
                0x0000000000404690                time
                0x00000000004046a0                opendir
                0x00000000004046b0                getgroups
                0x00000000004046c0                poll
                0x00000000004046d0                getgrouplist
                0x00000000004046e0                syslog
                0x00000000004046f0                exp
                0x0000000000404700                mount
                0x0000000000404710                strcmp
                0x0000000000404720                shutdown
                0x0000000000404730                getpwuid
                0x0000000000404740                dup
                0x0000000000404750                swapon
                0x0000000000404760                getcwd
                0x0000000000404770                __ashrdi3@@GCC_3.0
                0x0000000000404780                __res_state
                0x0000000000404790                gethostbyname
                0x00000000004047a0                strsignal
                0x00000000004047b0                getpwnam
                0x00000000004047c0                getservbyname
                0x00000000004047d0                sprintf
                0x00000000004047e0                strcspn
                0x00000000004047f0                getpeername
                0x0000000000404800                regerror
                0x0000000000404810                umount
                0x0000000000404820                vfork
                0x0000000000404830                srandom
                0x0000000000404840                strsep
                0x0000000000404850                __fixdfsi@@GCC_3.0
                0x0000000000404860                fsync
                0x0000000000404870                __adddf3@@GCC_3.0
                0x0000000000404880                localtime_r
                0x0000000000404890                getaddrinfo
                0x00000000004048a0                __moddi3@@GLIBC_2.0
                0x00000000004048b0                strftime
                0x00000000004048c0                mkdtemp
                0x00000000004048d0                getmntent
                0x00000000004048e0                fwrite
                0x00000000004048f0                access
                0x0000000000404900                __extendsfdf2@@GCC_3.0
                0x0000000000404910                strptime
                0x0000000000404920                tcgetpgrp
                0x0000000000404930                __errno_location
                0x0000000000404940                link
                0x0000000000404950                exit
                0x0000000000404960                __fixunsdfsi@@GCC_3.0
                0x0000000000404970                ether_ntoa
                0x0000000000404980                stime
                0x0000000000404990                klogctl
                0x00000000004049a0                setbuf
                0x00000000004049b0                inet_ntop
                0x00000000004049c0                getgrnam
                0x00000000004049d0                atoi
                0x00000000004049e0                fileno
                0x00000000004049f0                _setjmp
                0x0000000000404a00                fgets_unlocked
                0x0000000000404a10                getline
                0x0000000000404a20                _exit
                0x0000000000404a30                strverscmp
                0x0000000000404a40                strspn
                0x0000000000404a50                __nedf2@@GCC_3.0
                0x0000000000404a60                strlen
                0x0000000000404a70                lseek64
                0x0000000000404a80                ptsname_r
                0x0000000000404a90                regfree
                0x0000000000404aa0                strchr
                0x0000000000404ab0                fputs
                0x0000000000404ac0                adjtimex
                0x0000000000404ad0                execvp
                0x0000000000404ae0                setsid
                0x0000000000404af0                closedir
                0x0000000000404b00                vasprintf
                0x0000000000404b10                recvmsg
                0x0000000000404b20                strchrnul
                0x0000000000404b30                tzset
                0x0000000000404b40                setuid
                0x0000000000404b50                gethostid
                0x0000000000404b60                tcsetattr
                0x0000000000404b70                mkdir
                0x0000000000404b80                close
                0x0000000000404b90                vfprintf
                0x0000000000404ba0                strpbrk
                0x0000000000404bb0                tcsetpgrp
                0x0000000000404bc0                sigsuspend
                0x0000000000404bd0                raise
                0x0000000000404be0                free
                0x0000000000404bf0                sigprocmask
                0x0000000000404c00                __fputc_unlocked
                0x0000000000404c10                getsockname
                0x0000000000404c20                fopen64
                0x0000000000404c30                ftruncate64

.iplt
 *(SORT(.iplt))

.text           0x0000000000404c40    0x55298
                0x0000000000404c40                _ftext = .
 *(SORT(.text.unlikely) SORT(.text.*_unlikely))
 *(SORT(.text.exit) SORT(.text.exit.*))
 *(SORT(.text.startup) SORT(.text.startup.*))
 *(SORT(.text.hot) SORT(.text.hot.*))
 *(SORT(.text) SORT(.stub) SORT(.text.*) SORT(.gnu.linkonce.t.*))
 .text          0x0000000000404c40       0x60 /home/shizhai/new_zhongwang/trunk/staging_dir/toolchain-mips_r2_gcc-4.6-linaro_uClibc-0.9.33.2/lib/gcc/mips-openwrt-linux-uclibc/4.6.4/../../../../mips-openwrt-linux-uclibc/lib/crt1.o
                0x0000000000404c40                __start
 .text          0x0000000000404ca0       0xa0 /home/shizhai/new_zhongwang/trunk/staging_dir/toolchain-mips_r2_gcc-4.6-linaro_uClibc-0.9.33.2/lib/gcc/mips-openwrt-linux-uclibc/4.6.4/crtbegin.o
 .text          0x0000000000404d40       0x50 /home/shizhai/new_zhongwang/trunk/staging_dir/toolchain-mips_r2_gcc-4.6-linaro_uClibc-0.9.33.2/lib/gcc/mips-openwrt-linux-uclibc/4.6.4/crtend.o
 .text.applet_name_compare
                0x0000000000404d90       0x2c libbb/lib.a(appletlib.o)
 .text.find_applet_by_name
                0x0000000000404dbc       0x50 libbb/lib.a(appletlib.o)
                0x0000000000404dbc                find_applet_by_name
 .text.bb_show_usage
                0x0000000000404e0c       0xfc libbb/lib.a(appletlib.o)
                0x0000000000404e0c                bb_show_usage
 .text.lbb_prepare
                0x0000000000404f08       0x34 libbb/lib.a(appletlib.o)
                0x0000000000404f08                lbb_prepare
 .text.run_applet_no_and_exit
                0x0000000000404f3c      0x134 libbb/lib.a(appletlib.o)
                0x0000000000404f3c                run_applet_no_and_exit
 .text.run_applet_and_exit
                0x0000000000405070      0x260 libbb/lib.a(appletlib.o)
                0x0000000000405070                run_applet_and_exit
 .text.main     0x00000000004052d0       0x98 libbb/lib.a(appletlib.o)
                0x00000000004052d0                main
 .text.bb_basename
                0x0000000000405368       0x34 libbb/lib.a(get_last_path_component.o)
                0x0000000000405368                bb_basename
 .text.bb_get_last_path_component_nostrip
                0x000000000040539c       0x4c libbb/lib.a(get_last_path_component.o)
                0x000000000040539c                bb_get_last_path_component_nostrip
 .text.bb_get_last_path_component_strip
                0x00000000004053e8       0x58 libbb/lib.a(get_last_path_component.o)
                0x00000000004053e8                bb_get_last_path_component_strip
 .text.last_char_is
                0x0000000000405440       0x64 libbb/lib.a(last_char_is.o)
                0x0000000000405440                last_char_is
 .text.bb_verror_msg
                0x00000000004054a4      0x200 libbb/lib.a(verror_msg.o)
                0x00000000004054a4                bb_verror_msg
 .text.bb_error_msg_and_die
                0x00000000004056a4       0x2c libbb/lib.a(verror_msg.o)
                0x00000000004056a4                bb_error_msg_and_die
 .text.bb_error_msg
                0x00000000004056d0       0x30 libbb/lib.a(verror_msg.o)
                0x00000000004056d0                bb_error_msg
 .text.xfunc_die
                0x0000000000405700       0x48 libbb/lib.a(xfunc_die.o)
                0x0000000000405700                xfunc_die
 .text.wh_helper
                0x0000000000405748       0x70 libbb/lib.a(xfuncs.o)
 .text.ndelay_on
                0x00000000004057b8       0x48 libbb/lib.a(xfuncs.o)
                0x00000000004057b8                ndelay_on
 .text.ndelay_off
                0x0000000000405800       0x4c libbb/lib.a(xfuncs.o)
                0x0000000000405800                ndelay_off
 .text.close_on_exec_on
                0x000000000040584c        0xc libbb/lib.a(xfuncs.o)
                0x000000000040584c                close_on_exec_on
 .text.strncpy_IFNAMSIZ
                0x0000000000405858        0x8 libbb/lib.a(xfuncs.o)
                0x0000000000405858                strncpy_IFNAMSIZ
 .text.utoa_to_buf
                0x0000000000405860       0x7c libbb/lib.a(xfuncs.o)
                0x0000000000405860                utoa_to_buf
 .text.itoa_to_buf
                0x00000000004058dc       0x34 libbb/lib.a(xfuncs.o)
                0x00000000004058dc                itoa_to_buf
 .text.utoa     0x0000000000405910       0x34 libbb/lib.a(xfuncs.o)
                0x0000000000405910                utoa
 .text.itoa     0x0000000000405944       0x34 libbb/lib.a(xfuncs.o)
                0x0000000000405944                itoa
 .text.bin2hex  0x0000000000405978       0x60 libbb/lib.a(xfuncs.o)
                0x0000000000405978                bin2hex
 .text.hex2bin  0x00000000004059d8       0xfc libbb/lib.a(xfuncs.o)
                0x00000000004059d8                hex2bin
 .text.bb_putchar_stderr
                0x0000000000405ad4       0x28 libbb/lib.a(xfuncs.o)
                0x0000000000405ad4                bb_putchar_stderr
 .text.full_write1_str
                0x0000000000405afc       0x30 libbb/lib.a(xfuncs.o)
                0x0000000000405afc                full_write1_str
 .text.full_write2_str
                0x0000000000405b2c       0x30 libbb/lib.a(xfuncs.o)
                0x0000000000405b2c                full_write2_str
 .text.get_terminal_width_height
                0x0000000000405b5c       0x9c libbb/lib.a(xfuncs.o)
                0x0000000000405b5c                get_terminal_width_height
 .text.tcsetattr_stdin_TCSANOW
                0x0000000000405bf8       0x10 libbb/lib.a(xfuncs.o)
                0x0000000000405bf8                tcsetattr_stdin_TCSANOW
 .text.safe_waitpid
                0x0000000000405c08       0x84 libbb/lib.a(xfuncs.o)
                0x0000000000405c08                safe_waitpid
 .text.wait_any_nohang
                0x0000000000405c8c       0x10 libbb/lib.a(xfuncs.o)
                0x0000000000405c8c                wait_any_nohang
 .text.wait4pid
                0x0000000000405c9c       0x68 libbb/lib.a(xfuncs.o)
                0x0000000000405c9c                wait4pid
 .text.malloc_or_warn
                0x0000000000405d04       0x4c libbb/lib.a(xfuncs_printf.o)
                0x0000000000405d04                malloc_or_warn
 .text.xmalloc  0x0000000000405d50       0x3c libbb/lib.a(xfuncs_printf.o)
                0x0000000000405d50                xmalloc
 .text.xrealloc
                0x0000000000405d8c       0x3c libbb/lib.a(xfuncs_printf.o)
                0x0000000000405d8c                xrealloc
 .text.xzalloc  0x0000000000405dc8       0x44 libbb/lib.a(xfuncs_printf.o)
                0x0000000000405dc8                xzalloc
 .text.xstrdup  0x0000000000405e0c       0x38 libbb/lib.a(xfuncs_printf.o)
                0x0000000000405e0c                xstrdup
 .text.xstrndup
                0x0000000000405e44       0x6c libbb/lib.a(xfuncs_printf.o)
                0x0000000000405e44                xstrndup
 .text.xfopen   0x0000000000405eb0       0x38 libbb/lib.a(xfuncs_printf.o)
                0x0000000000405eb0                xfopen
 .text.xopen3   0x0000000000405ee8       0x38 libbb/lib.a(xfuncs_printf.o)
                0x0000000000405ee8                xopen3
 .text.xopen    0x0000000000405f20        0x8 libbb/lib.a(xfuncs_printf.o)
                0x0000000000405f20                xopen
 .text.open3_or_warn
                0x0000000000405f28       0x48 libbb/lib.a(xfuncs_printf.o)
                0x0000000000405f28                open3_or_warn
 .text.open_or_warn
                0x0000000000405f70        0x8 libbb/lib.a(xfuncs_printf.o)
                0x0000000000405f70                open_or_warn
 .text.xunlink  0x0000000000405f78       0x38 libbb/lib.a(xfuncs_printf.o)
                0x0000000000405f78                xunlink
 .text.xrename  0x0000000000405fb0       0x48 libbb/lib.a(xfuncs_printf.o)
                0x0000000000405fb0                xrename
 .text.xpipe    0x0000000000405ff8       0x2c libbb/lib.a(xfuncs_printf.o)
                0x0000000000405ff8                xpipe
 .text.xdup2    0x0000000000406024       0x34 libbb/lib.a(xfuncs_printf.o)
                0x0000000000406024                xdup2
 .text.xmove_fd
                0x0000000000406058       0x40 libbb/lib.a(xfuncs_printf.o)
                0x0000000000406058                xmove_fd
 .text.xwrite   0x0000000000406098       0x40 libbb/lib.a(xfuncs_printf.o)
                0x0000000000406098                xwrite
 .text.xwrite_str
                0x00000000004060d8       0x40 libbb/lib.a(xfuncs_printf.o)
                0x00000000004060d8                xwrite_str
 .text.xclose   0x0000000000406118       0x2c libbb/lib.a(xfuncs_printf.o)
                0x0000000000406118                xclose
 .text.xlseek   0x0000000000406144       0x74 libbb/lib.a(xfuncs_printf.o)
                0x0000000000406144                xlseek
 .text.xmkstemp
                0x00000000004061b8       0x38 libbb/lib.a(xfuncs_printf.o)
                0x00000000004061b8                xmkstemp
 .text.die_if_ferror
                0x00000000004061f0       0x38 libbb/lib.a(xfuncs_printf.o)
                0x00000000004061f0                die_if_ferror
 .text.die_if_ferror_stdout
                0x0000000000406228       0x14 libbb/lib.a(xfuncs_printf.o)
                0x0000000000406228                die_if_ferror_stdout
 .text.fflush_all
                0x000000000040623c        0x8 libbb/lib.a(xfuncs_printf.o)
                0x000000000040623c                fflush_all
 .text.bb_putchar
                0x0000000000406244       0x34 libbb/lib.a(xfuncs_printf.o)
                0x0000000000406244                bb_putchar
 .text.xprint_and_close_file
                0x0000000000406278       0x54 libbb/lib.a(xfuncs_printf.o)
                0x0000000000406278                xprint_and_close_file
 .text.xasprintf
                0x00000000004062cc       0x48 libbb/lib.a(xfuncs_printf.o)
                0x00000000004062cc                xasprintf
 .text.xsetenv  0x0000000000406314       0x2c libbb/lib.a(xfuncs_printf.o)
                0x0000000000406314                xsetenv
 .text.bb_unsetenv
                0x0000000000406340       0x58 libbb/lib.a(xfuncs_printf.o)
                0x0000000000406340                bb_unsetenv
 .text.bb_unsetenv_and_free
                0x0000000000406398       0x28 libbb/lib.a(xfuncs_printf.o)
                0x0000000000406398                bb_unsetenv_and_free
 .text.xsetgid  0x00000000004063c0       0x2c libbb/lib.a(xfuncs_printf.o)
                0x00000000004063c0                xsetgid
 .text.xsetuid  0x00000000004063ec       0x2c libbb/lib.a(xfuncs_printf.o)
                0x00000000004063ec                xsetuid
 .text.xchdir   0x0000000000406418       0x38 libbb/lib.a(xfuncs_printf.o)
                0x0000000000406418                xchdir
 .text.xchroot  0x0000000000406450       0x38 libbb/lib.a(xfuncs_printf.o)
                0x0000000000406450                xchroot
 .text.warn_opendir
                0x0000000000406488       0x48 libbb/lib.a(xfuncs_printf.o)
                0x0000000000406488                warn_opendir
 .text.xopendir
                0x00000000004064d0       0x38 libbb/lib.a(xfuncs_printf.o)
                0x00000000004064d0                xopendir
 .text.xsocket  0x0000000000406508       0x98 libbb/lib.a(xfuncs_printf.o)
                0x0000000000406508                xsocket
 .text.xbind    0x00000000004065a0       0x2c libbb/lib.a(xfuncs_printf.o)
                0x00000000004065a0                xbind
 .text.xlisten  0x00000000004065cc       0x2c libbb/lib.a(xfuncs_printf.o)
                0x00000000004065cc                xlisten
 .text.xsendto  0x00000000004065f8       0x38 libbb/lib.a(xfuncs_printf.o)
                0x00000000004065f8                xsendto
 .text.xstat    0x0000000000406630       0x38 libbb/lib.a(xfuncs_printf.o)
                0x0000000000406630                xstat
 .text.xfstat   0x0000000000406668       0x30 libbb/lib.a(xfuncs_printf.o)
                0x0000000000406668                xfstat
 .text.ioctl_or_perror_and_die
                0x0000000000406698       0x60 libbb/lib.a(xfuncs_printf.o)
                0x0000000000406698                ioctl_or_perror_and_die
 .text.ioctl_or_perror
                0x00000000004066f8       0x68 libbb/lib.a(xfuncs_printf.o)
                0x00000000004066f8                ioctl_or_perror
 .text.bb_ioctl_or_warn
                0x0000000000406760       0x40 libbb/lib.a(xfuncs_printf.o)
                0x0000000000406760                bb_ioctl_or_warn
 .text.bb_xioctl
                0x00000000004067a0       0x30 libbb/lib.a(xfuncs_printf.o)
                0x00000000004067a0                bb_xioctl
 .text.xfork    0x00000000004067d0       0x2c libbb/lib.a(xfuncs_printf.o)
                0x00000000004067d0                xfork
 .text.bb_full_fd_action
                0x00000000004067fc      0x180 libbb/lib.a(copyfd.o)
 .text.bb_copyfd_size
                0x000000000040697c       0x20 libbb/lib.a(copyfd.o)
                0x000000000040697c                bb_copyfd_size
 .text.bb_copyfd_exact_size
                0x000000000040699c       0x7c libbb/lib.a(copyfd.o)
                0x000000000040699c                bb_copyfd_exact_size
 .text.bb_copyfd_eof
                0x0000000000406a18        0xc libbb/lib.a(copyfd.o)
                0x0000000000406a18                bb_copyfd_eof
 .text.full_write
                0x0000000000406a24       0x78 libbb/lib.a(full_write.o)
                0x0000000000406a24                full_write
 .text.bb_perror_msg
                0x0000000000406a9c       0x68 libbb/lib.a(perror_msg.o)
                0x0000000000406a9c                bb_perror_msg
 .text.bb_perror_msg_and_die
                0x0000000000406b04       0x5c libbb/lib.a(perror_msg.o)
                0x0000000000406b04                bb_perror_msg_and_die
 .text.bb_simple_perror_msg
                0x0000000000406b60       0x10 libbb/lib.a(perror_msg.o)
                0x0000000000406b60                bb_simple_perror_msg
 .text.bb_simple_perror_msg_and_die
                0x0000000000406b70       0x18 libbb/lib.a(perror_msg.o)
                0x0000000000406b70                bb_simple_perror_msg_and_die
 .text.safe_read
                0x0000000000406b88       0x78 libbb/lib.a(read.o)
                0x0000000000406b88                safe_read
 .text.full_read
                0x0000000000406c00       0x80 libbb/lib.a(read.o)
                0x0000000000406c00                full_read
 .text.read_close
                0x0000000000406c80       0x3c libbb/lib.a(read.o)
                0x0000000000406c80                read_close
 .text.open_read_close
                0x0000000000406cbc       0x58 libbb/lib.a(read.o)
                0x0000000000406cbc                open_read_close
 .text.safe_write
                0x0000000000406d14       0x78 libbb/lib.a(safe_write.o)
                0x0000000000406d14                safe_write
 .text.parse_datestr
                0x0000000000406d8c      0x454 libbb/lib.a(time.o)
                0x0000000000406d8c                parse_datestr
 .text.validate_tm_time
                0x00000000004071e0       0x40 libbb/lib.a(time.o)
                0x00000000004071e0                validate_tm_time
 .text.monotonic_us
                0x0000000000407220       0x4c libbb/lib.a(time.o)
                0x0000000000407220                monotonic_us
 .text.monotonic_ms
                0x000000000040726c       0x54 libbb/lib.a(time.o)
                0x000000000040726c                monotonic_ms
 .text.monotonic_sec
                0x00000000004072c0        0x8 libbb/lib.a(time.o)
                0x00000000004072c0                monotonic_sec
 .text.ret_ERANGE
                0x00000000004072c8       0x1c libbb/lib.a(bb_strtonum.o)
 .text.handle_errors
                0x00000000004072e4       0x60 libbb/lib.a(bb_strtonum.o)
 .text.bb_strtoull
                0x0000000000407344       0x7c libbb/lib.a(bb_strtonum.o)
                0x0000000000407344                bb_strtoull
 .text.bb_strtoll
                0x00000000004073c0       0x88 libbb/lib.a(bb_strtonum.o)
                0x00000000004073c0                bb_strtoll
 .text.bb_strtoul
                0x0000000000407448       0x80 libbb/lib.a(bb_strtonum.o)
                0x0000000000407448                bb_strtoul
 .text.bb_strtol
                0x00000000004074c8       0x8c libbb/lib.a(bb_strtonum.o)
                0x00000000004074c8                bb_strtol
 .text.nuke_str
                0x0000000000407554       0x48 loginutils/lib.a(passwd.o)
 .text.passwd_main
                0x000000000040759c      0x4b8 loginutils/lib.a(passwd.o)
                0x000000000040759c                passwd_main
 .text.delete_cronfile
                0x0000000000407a54       0xec miscutils/lib.a(crond.o)
 .text.crondlog
                0x0000000000407b40       0xec miscutils/lib.a(crond.o)
 .text.ParseField
                0x0000000000407c2c      0x20c miscutils/lib.a(crond.o)
 .text.load_crontab
                0x0000000000407e38      0x2f8 miscutils/lib.a(crond.o)
 .text.rescan_crontab_dir
                0x0000000000408130       0xf0 miscutils/lib.a(crond.o)
 .text.safe_setenv
                0x0000000000408220       0x64 miscutils/lib.a(crond.o)
 .text.start_one_job
                0x0000000000408284      0x144 miscutils/lib.a(crond.o)
 .text.crond_main
                0x00000000004083c8      0x474 miscutils/lib.a(crond.o)
                0x00000000004083c8                crond_main
 .text.open_as_user
                0x000000000040883c       0x8c miscutils/lib.a(crontab.o)
 .text.edit_file
                0x00000000004088c8       0xdc miscutils/lib.a(crontab.o)
 .text.crontab_main
                0x00000000004089a4      0x338 miscutils/lib.a(crontab.o)
                0x00000000004089a4                crontab_main
 .text.clear_line
                0x0000000000408cdc       0x1c miscutils/lib.a(less.o)
 .text.print_statusline
                0x0000000000408cf8       0x40 miscutils/lib.a(less.o)
 .text.read_lines
                0x0000000000408d38      0x350 miscutils/lib.a(less.o)
 .text.move_cursor
                0x0000000000409088       0x18 miscutils/lib.a(less.o)
 .text.print_hilite
                0x00000000004090a0       0x10 miscutils/lib.a(less.o)
 .text.print_ascii
                0x00000000004090b0      0x1e0 miscutils/lib.a(less.o)
 .text.status_print
                0x0000000000409290       0xb0 miscutils/lib.a(less.o)
 .text.buffer_print
                0x0000000000409340       0x64 miscutils/lib.a(less.o)
 .text.buffer_fill_and_print
                0x00000000004093a4       0x90 miscutils/lib.a(less.o)
 .text.reinitialize
                0x0000000000409434       0xd8 miscutils/lib.a(less.o)
 .text.change_file
                0x000000000040950c       0x98 miscutils/lib.a(less.o)
 .text.buffer_down
                0x00000000004095a4       0x90 miscutils/lib.a(less.o)
 .text.buffer_up
                0x0000000000409634       0x34 miscutils/lib.a(less.o)
 .text.buffer_line
                0x0000000000409668       0x6c miscutils/lib.a(less.o)
 .text.set_tty_cooked
                0x00000000004096d4       0x30 miscutils/lib.a(less.o)
 .text.less_exit
                0x0000000000409704       0x34 miscutils/lib.a(less.o)
 .text.getch_nowait
                0x0000000000409738      0x148 miscutils/lib.a(less.o)
 .text.less_getch
                0x0000000000409880       0x78 miscutils/lib.a(less.o)
 .text.less_gets
                0x00000000004098f8      0x11c miscutils/lib.a(less.o)
 .text.sig_catcher
                0x0000000000409a14       0x10 miscutils/lib.a(less.o)
 .text.examine_file
                0x0000000000409a24       0xb0 miscutils/lib.a(less.o)
 .text.less_main
                0x0000000000409ad4      0x874 miscutils/lib.a(less.o)
                0x0000000000409ad4                less_main
 .text.exit_unlock
                0x000000000040a348       0x20 miscutils/lib.a(lock.o)
 .text.lock_main
                0x000000000040a368      0x2cc miscutils/lib.a(lock.o)
                0x000000000040a368                lock_main
 .text.strings_main
                0x000000000040a634      0x218 miscutils/lib.a(strings.o)
                0x000000000040a634                strings_main
 .text.ptok     0x000000000040a84c       0x34 miscutils/lib.a(time.o)
 .text.run_command
                0x000000000040a880      0x12c miscutils/lib.a(time.o)
 .text.time_main
                0x000000000040a9ac      0x5cc miscutils/lib.a(time.o)
                0x000000000040a9ac                time_main
 .text.find_module
                0x000000000040af78      0x1c0 modutils/lib.a(insmod.o)
 .text.check_module_name_match
                0x000000000040b138       0x6c modutils/lib.a(insmod.o)
 .text.insmod_main
                0x000000000040b1a4      0x100 modutils/lib.a(insmod.o)
                0x000000000040b1a4                insmod_main
 .text.lsmod_main
                0x000000000040b2a4      0x148 modutils/lib.a(lsmod.o)
                0x000000000040b2a4                lsmod_main
 .text.filename2modname
                0x000000000040b3ec       0xa4 modutils/lib.a(modutils.o)
                0x000000000040b3ec                filename2modname
 .text.parse_cmdline_module_options
                0x000000000040b490       0xfc modutils/lib.a(modutils.o)
                0x000000000040b490                parse_cmdline_module_options
 .text.bb_init_module
                0x000000000040b58c       0x98 modutils/lib.a(modutils.o)
                0x000000000040b58c                bb_init_module
 .text.bb_delete_module
                0x000000000040b624       0x30 modutils/lib.a(modutils.o)
                0x000000000040b624                bb_delete_module
 .text.moderror
                0x000000000040b654       0x94 modutils/lib.a(modutils.o)
                0x000000000040b654                moderror
 .text.rmmod_main
                0x000000000040b6e8      0x114 modutils/lib.a(rmmod.o)
                0x000000000040b6e8                rmmod_main
 .text.finish   0x000000000040b7fc       0xd4 networking/lib.a(arping.o)
 .text.catcher  0x000000000040b8d0      0x218 networking/lib.a(arping.o)
 .text.arping_main
                0x000000000040bae8      0x8c0 networking/lib.a(arping.o)
                0x000000000040bae8                arping_main
 .text.arm_ioctl
                0x000000000040c3a8       0x14 networking/lib.a(brctl.o)
 .text.brctl_main
                0x000000000040c3bc      0x62c networking/lib.a(brctl.o)
                0x000000000040c3bc                brctl_main
 .text.ifconfig_main
                0x000000000040c9e8      0x578 networking/lib.a(ifconfig.o)
                0x000000000040c9e8                ifconfig_main
 .text.get_afntype
                0x000000000040cf60       0x2c networking/lib.a(interface.o)
 .text.hexchar2int
                0x000000000040cf8c       0x30 networking/lib.a(interface.o)
 .text.ether_input
                0x000000000040cfbc      0x100 networking/lib.a(interface.o)
 .text.add_interface
                0x000000000040d0bc       0xb8 networking/lib.a(interface.o)
 .text.if_readconf
                0x000000000040d174       0xf0 networking/lib.a(interface.o)
 .text.if_readlist_proc
                0x000000000040d264      0x2d0 networking/lib.a(interface.o)
 .text.do_if_fetch
                0x000000000040d534      0x318 networking/lib.a(interface.o)
 .text.print_bytes_scaled
                0x000000000040d84c       0x94 networking/lib.a(interface.o)
 .text.UNSPEC_print
                0x000000000040d8e0       0x9c networking/lib.a(interface.o)
 .text.UNSPEC_sprint
                0x000000000040d97c       0x30 networking/lib.a(interface.o)
 .text.INET6_input
                0x000000000040d9ac        0x8 networking/lib.a(interface.o)
 .text.INET6_sprint
                0x000000000040d9b4       0x74 networking/lib.a(interface.o)
 .text.INET_input
                0x000000000040da28        0x8 networking/lib.a(interface.o)
 .text.INET_sprint
                0x000000000040da30       0x78 networking/lib.a(interface.o)
 .text.ether_print
                0x000000000040daa8       0x6c networking/lib.a(interface.o)
 .text.get_hwntype
                0x000000000040db14       0x2c networking/lib.a(interface.o)
                0x000000000040db14                get_hwntype
 .text.ife_print
                0x000000000040db40      0x664 networking/lib.a(interface.o)
 .text.display_interfaces
                0x000000000040e1a4       0xf4 networking/lib.a(interface.o)
                0x000000000040e1a4                display_interfaces
 .text.nc_main  0x000000000040e298      0x184 networking/lib.a(nc.o)
                0x000000000040e298                nc_main
 .text.netmsg_main
                0x000000000040e41c      0x160 networking/lib.a(netmsg.o)
                0x000000000040e41c                netmsg_main
 .text.prg_cache_get
                0x000000000040e57c       0x58 networking/lib.a(netstat.o)
 .text.dir_act  0x000000000040e5d4       0xec networking/lib.a(netstat.o)
 .text.add_to_prg_cache_if_socket
                0x000000000040e6c0      0x130 networking/lib.a(netstat.o)
 .text.do_info  0x000000000040e7f0       0xe8 networking/lib.a(netstat.o)
 .text.build_ipv4_addr
                0x000000000040e8d8       0x38 networking/lib.a(netstat.o)
 .text.unix_do_one
                0x000000000040e910      0x2ac networking/lib.a(netstat.o)
 .text.build_ipv6_addr
                0x000000000040ebbc       0x70 networking/lib.a(netstat.o)
 .text.scan_inet_proc_line
                0x000000000040ec2c       0xd0 networking/lib.a(netstat.o)
 .text.ip_port_str
                0x000000000040ecfc       0xc4 networking/lib.a(netstat.o)
 .text.print_inet_line
                0x000000000040edc0      0x140 networking/lib.a(netstat.o)
 .text.raw_do_one
                0x000000000040ef00       0x98 networking/lib.a(netstat.o)
 .text.udp_do_one
                0x000000000040ef98       0xcc networking/lib.a(netstat.o)
 .text.tcp_do_one
                0x000000000040f064       0x78 networking/lib.a(netstat.o)
 .text.netstat_main
                0x000000000040f0dc      0x318 networking/lib.a(netstat.o)
                0x000000000040f0dc                netstat_main
 .text.print_host
                0x000000000040f3f4      0x13c networking/lib.a(nslookup.o)
 .text.nslookup_main
                0x000000000040f530      0x100 networking/lib.a(nslookup.o)
                0x000000000040f530                nslookup_main
 .text.my_SQRT  0x000000000040f630       0xe8 networking/lib.a(ntpd.o)
 .text.lfp_to_d
                0x000000000040f718       0x80 networking/lib.a(ntpd.o)
 .text.sfp_to_d
                0x000000000040f798       0x80 networking/lib.a(ntpd.o)
 .text.d_to_lfp
                0x000000000040f818       0x90 networking/lib.a(ntpd.o)
 .text.d_to_sfp
                0x000000000040f8a8       0x90 networking/lib.a(ntpd.o)
 .text.set_next
                0x000000000040f938       0x54 networking/lib.a(ntpd.o)
 .text.filter_datapoints
                0x000000000040f98c      0x51c networking/lib.a(ntpd.o)
 .text.reset_peer_stats
                0x000000000040fea8      0x170 networking/lib.a(ntpd.o)
 .text.compare_point_edge
                0x0000000000410018       0x7c networking/lib.a(ntpd.o)
 .text.compare_survivor_metric
                0x0000000000410094       0x7c networking/lib.a(ntpd.o)
 .text.poll_interval
                0x0000000000410110       0x58 networking/lib.a(ntpd.o)
 .text.do_sendto
                0x0000000000410168       0x84 networking/lib.a(ntpd.o)
 .text.run_script
                0x00000000004101ec      0x18c networking/lib.a(ntpd.o)
 .text.gettime1900d
                0x0000000000410378       0xa8 networking/lib.a(ntpd.o)
 .text.ntp_init
                0x0000000000410420      0x250 networking/lib.a(ntpd.o)
 .text.recv_and_process_client_pkt
                0x0000000000410670      0x224 networking/lib.a(ntpd.o)
 .text.step_time
                0x0000000000410894      0x1fc networking/lib.a(ntpd.o)
 .text.select_and_cluster
                0x0000000000410a90      0x7d8 networking/lib.a(ntpd.o)
 .text.set_new_values.constprop.1
                0x0000000000411268       0x24 networking/lib.a(ntpd.o)
 .text.update_local_clock
                0x000000000041128c      0x4dc networking/lib.a(ntpd.o)
 .text.recv_and_process_peer_pkt
                0x0000000000411768      0x5a8 networking/lib.a(ntpd.o)
 .text.ntpd_main
                0x0000000000411d10      0x4ec networking/lib.a(ntpd.o)
                0x0000000000411d10                ntpd_main
 .text.unpack_tail
                0x00000000004121fc      0x1ec networking/lib.a(ping.o)
 .text.print_stats_and_exit
                0x00000000004123e8      0x194 networking/lib.a(ping.o)
 .text.sendping_tail.constprop.0
                0x000000000041257c      0x188 networking/lib.a(ping.o)
 .text.sendping4
                0x0000000000412704       0xdc networking/lib.a(ping.o)
 .text.sendping6
                0x00000000004127e0       0x64 networking/lib.a(ping.o)
 .text.common_ping_main
                0x0000000000412844      0x930 networking/lib.a(ping.o)
 .text.ping_main
                0x0000000000413174       0x10 networking/lib.a(ping.o)
                0x0000000000413174                ping_main
 .text.ping6_main
                0x0000000000413184       0x10 networking/lib.a(ping.o)
                0x0000000000413184                ping6_main
 .text.set_flags
                0x0000000000413194       0x4c networking/lib.a(route.o)
 .text.kw_lookup
                0x00000000004131e0       0xb0 networking/lib.a(route.o)
 .text.INET6_displayroutes
                0x0000000000413290      0x244 networking/lib.a(route.o)
 .text.INET6_setroute
                0x00000000004134d4      0x2a4 networking/lib.a(route.o)
 .text.INET_setroute
                0x0000000000413778      0x400 networking/lib.a(route.o)
 .text.bb_displayroutes
                0x0000000000413b78      0x24c networking/lib.a(route.o)
                0x0000000000413b78                bb_displayroutes
 .text.route_main
                0x0000000000413dc4      0x194 networking/lib.a(route.o)
                0x0000000000413dc4                route_main
 .text.put_iac  0x0000000000413f58       0x28 networking/lib.a(telnet.o)
 .text.iac_flush
                0x0000000000413f80       0x4c networking/lib.a(telnet.o)
 .text.put_iac2
                0x0000000000413fcc       0x64 networking/lib.a(telnet.o)
 .text.rawmode  0x0000000000414030       0x2c networking/lib.a(telnet.o)
 .text.cookmode
                0x000000000041405c       0x2c networking/lib.a(telnet.o)
 .text.setConMode
                0x0000000000414088       0x88 networking/lib.a(telnet.o)
 .text.doexit   0x0000000000414110       0x1c networking/lib.a(telnet.o)
 .text.con_escape
                0x000000000041412c      0x184 networking/lib.a(telnet.o)
 .text.handle_net_output
                0x00000000004142b0       0xa4 networking/lib.a(telnet.o)
 .text.telnet_main
                0x0000000000414354      0x620 networking/lib.a(telnet.o)
                0x0000000000414354                telnet_main
 .text.make_new_session
                0x0000000000414974      0x224 networking/lib.a(telnetd.o)
 .text.free_session
                0x0000000000414b98      0x100 networking/lib.a(telnetd.o)
 .text.handle_sigchld
                0x0000000000414c98       0x90 networking/lib.a(telnetd.o)
 .text.telnetd_main
                0x0000000000414d28      0x8a0 networking/lib.a(telnetd.o)
                0x0000000000414d28                telnetd_main
 .text.traceroute_main
                0x00000000004155c8      0xb1c networking/lib.a(traceroute.o)
                0x00000000004155c8                traceroute_main
 .text.xfind_str
                0x00000000004160e4       0x60 networking/lib.a(vconfig.o)
 .text.vconfig_main
                0x0000000000416144      0x130 networking/lib.a(vconfig.o)
                0x0000000000416144                vconfig_main
 .text.sanitize_string
                0x0000000000416274       0x28 networking/lib.a(wget.o)
 .text.open_socket
                0x000000000041629c       0x3c networking/lib.a(wget.o)
 .text.base64enc
                0x00000000004162d8       0x5c networking/lib.a(wget.o)
 .text.fgets_and_trim
                0x0000000000416334       0x78 networking/lib.a(wget.o)
 .text.parse_url
                0x00000000004163ac      0x1d4 networking/lib.a(wget.o)
 .text.gethdr   0x0000000000416580      0x134 networking/lib.a(wget.o)
 .text.progress_meter
                0x00000000004166b4       0xec networking/lib.a(wget.o)
 .text.retrieve_file_data
                0x00000000004167a0      0x22c networking/lib.a(wget.o)
 .text.ftpcmd   0x00000000004169cc       0xa8 networking/lib.a(wget.o)
 .text.wget_main
                0x0000000000416a74      0xbb4 networking/lib.a(wget.o)
                0x0000000000416a74                wget_main
 .text.alloc_dhcp_option
                0x0000000000417628       0x90 networking/udhcp/lib.a(dhcpc.o)
 .text.init_packet
                0x00000000004176b8       0xcc networking/udhcp/lib.a(dhcpc.o)
 .text.add_client_options
                0x0000000000417784      0x18c networking/udhcp/lib.a(dhcpc.o)
 .text.raw_bcast_from_client_config_ifindex
                0x0000000000417910       0x4c networking/udhcp/lib.a(dhcpc.o)
 .text.send_discover
                0x000000000041795c       0x84 networking/udhcp/lib.a(dhcpc.o)
 .text.send_select
                0x00000000004179e0       0x90 networking/udhcp/lib.a(dhcpc.o)
 .text.send_renew
                0x0000000000417a70       0x90 networking/udhcp/lib.a(dhcpc.o)
 .text.send_release
                0x0000000000417b00       0x74 networking/udhcp/lib.a(dhcpc.o)
 .text.udhcp_recv_raw_packet
                0x0000000000417b74      0x208 networking/udhcp/lib.a(dhcpc.o)
 .text.client_background
                0x0000000000417d7c       0x3c networking/udhcp/lib.a(dhcpc.o)
 .text.sprint_nip
                0x0000000000417db8       0x44 networking/udhcp/lib.a(dhcpc.o)
 .text.change_listen_mode
                0x0000000000417dfc      0x110 networking/udhcp/lib.a(dhcpc.o)
 .text.xmalloc_optname_optval.isra.0
                0x0000000000417f0c      0x4f4 networking/udhcp/lib.a(dhcpc.o)
 .text.udhcp_run_script
                0x0000000000418400      0x430 networking/udhcp/lib.a(dhcpc.o)
 .text.perform_release
                0x0000000000418830       0xb4 networking/udhcp/lib.a(dhcpc.o)
 .text.udhcpc_main
                0x00000000004188e4      0xaf0 networking/udhcp/lib.a(dhcpc.o)
                0x00000000004188e4                udhcpc_main
 .text.dname_dec
                0x00000000004193d4      0x1ac networking/udhcp/lib.a(domain_codec.o)
                0x00000000004193d4                dname_dec
 .text.dname_enc
                0x0000000000419580      0x25c networking/udhcp/lib.a(domain_codec.o)
                0x0000000000419580                dname_enc
 .text.udhcp_init_header
                0x00000000004197dc       0x94 networking/udhcp/lib.a(packet.o)
                0x00000000004197dc                udhcp_init_header
 .text.udhcp_recv_kernel_packet
                0x0000000000419870       0xe0 networking/udhcp/lib.a(packet.o)
                0x0000000000419870                udhcp_recv_kernel_packet
 .text.udhcp_checksum
                0x0000000000419950       0x68 networking/udhcp/lib.a(packet.o)
                0x0000000000419950                udhcp_checksum
 .text.udhcp_get_payload_len
                0x00000000004199b8       0x20 networking/udhcp/lib.a(packet.o)
                0x00000000004199b8                udhcp_get_payload_len
 .text.udhcp_send_raw_packet
                0x00000000004199d8      0x1dc networking/udhcp/lib.a(packet.o)
                0x00000000004199d8                udhcp_send_raw_packet
 .text.udhcp_send_kernel_packet
                0x0000000000419bb4      0x14c networking/udhcp/lib.a(packet.o)
                0x0000000000419bb4                udhcp_send_kernel_packet
 .text.signal_handler
                0x0000000000419d00       0x44 networking/udhcp/lib.a(signalpipe.o)
 .text.udhcp_sp_setup
                0x0000000000419d44       0x54 networking/udhcp/lib.a(signalpipe.o)
                0x0000000000419d44                udhcp_sp_setup
 .text.udhcp_sp_fd_set
                0x0000000000419d98       0xb0 networking/udhcp/lib.a(signalpipe.o)
                0x0000000000419d98                udhcp_sp_fd_set
 .text.udhcp_sp_read
                0x0000000000419e48       0x60 networking/udhcp/lib.a(signalpipe.o)
                0x0000000000419e48                udhcp_sp_read
 .text.udhcp_read_interface
                0x0000000000419ea8      0x12c networking/udhcp/lib.a(socket.o)
                0x0000000000419ea8                udhcp_read_interface
 .text.udhcp_listen_socket
                0x0000000000419fd4       0xb0 networking/udhcp/lib.a(socket.o)
                0x0000000000419fd4                udhcp_listen_socket
 .text.allocate_tempopt_if_needed.isra.0
                0x000000000041a084       0x90 networking/udhcp/lib.a(common.o)
 .text.udhcp_option_idx
                0x000000000041a114       0x8c networking/udhcp/lib.a(common.o)
                0x000000000041a114                udhcp_option_idx
 .text.udhcp_get_option
                0x000000000041a1a0       0xe0 networking/udhcp/lib.a(common.o)
                0x000000000041a1a0                udhcp_get_option
 .text.udhcp_end_option
                0x000000000041a280       0x3c networking/udhcp/lib.a(common.o)
                0x000000000041a280                udhcp_end_option
 .text.udhcp_add_binary_option
                0x000000000041a2bc       0xa0 networking/udhcp/lib.a(common.o)
                0x000000000041a2bc                udhcp_add_binary_option
 .text.udhcp_add_simple_option
                0x000000000041a35c       0x98 networking/udhcp/lib.a(common.o)
                0x000000000041a35c                udhcp_add_simple_option
 .text.udhcp_find_option
                0x000000000041a3f4       0x3c networking/udhcp/lib.a(common.o)
                0x000000000041a3f4                udhcp_find_option
 .text.attach_option
                0x000000000041a430      0x1e0 networking/udhcp/lib.a(common.o)
 .text.udhcp_str2nip
                0x000000000041a610       0x48 networking/udhcp/lib.a(common.o)
                0x000000000041a610                udhcp_str2nip
 .text.udhcp_str2optset
                0x000000000041a658      0x248 networking/udhcp/lib.a(common.o)
                0x000000000041a658                udhcp_str2optset
 .text.scale    0x000000000041a8a0       0x30 procps/lib.a(free.o)
 .text.free_main
                0x000000000041a8d0      0x1f8 procps/lib.a(free.o)
                0x000000000041a8d0                free_main
 .text.kill_main
                0x000000000041aac8      0x3c4 procps/lib.a(kill.o)
                0x000000000041aac8                kill_main
 .text.act.constprop.0
                0x000000000041ae8c       0x54 procps/lib.a(pgrep.o)
 .text.pgrep_main
                0x000000000041aee0      0x2a0 procps/lib.a(pgrep.o)
                0x000000000041aee0                pgrep_main
 .text.pidof_main
                0x000000000041b180       0xd0 procps/lib.a(pidof.o)
                0x000000000041b180                pidof_main
 .text.ps_main  0x000000000041b250      0x170 procps/lib.a(ps.o)
                0x000000000041b250                ps_main
 .text.sysctl_dots_to_slashes
                0x000000000041b3c0       0xb0 procps/lib.a(sysctl.o)
 .text.sysctl_act_recursive
                0x000000000041b470      0x360 procps/lib.a(sysctl.o)
 .text.sysctl_main
                0x000000000041b7d0      0x164 procps/lib.a(sysctl.o)
                0x000000000041b7d0                sysctl_main
 .text.mem_sort
                0x000000000041b934       0x24 procps/lib.a(top.o)
 .text.pcpu_sort
                0x000000000041b958       0x10 procps/lib.a(top.o)
 .text.time_sort
                0x000000000041b968       0x24 procps/lib.a(top.o)
 .text.mult_lvl_cmp
                0x000000000041b98c       0x98 procps/lib.a(top.o)
 .text.display_process_list
                0x000000000041ba24      0x64c procps/lib.a(top.o)
 .text.clearmems
                0x000000000041c070       0x4c procps/lib.a(top.o)
 .text.read_cpu_jiffy.constprop.0
                0x000000000041c0bc      0x200 procps/lib.a(top.o)
 .text.do_stats
                0x000000000041c2bc      0x184 procps/lib.a(top.o)
 .text.top_main
                0x000000000041c440      0x2d4 procps/lib.a(top.o)
                0x000000000041c440                top_main
 .text.uptime_main
                0x000000000041c714      0x14c procps/lib.a(uptime.o)
                0x000000000041c714                uptime_main
 .text.isdigit_str9
                0x000000000041c860       0x3c shell/lib.a(ash.o)
 .text.var_end  0x000000000041c89c       0x28 shell/lib.a(ash.o)
 .text.stunalloc
                0x000000000041c8c4       0x24 shell/lib.a(ash.o)
 .text.setstackmark
                0x000000000041c8e8       0x30 shell/lib.a(ash.o)
 .text.prefix   0x000000000041c918       0x38 shell/lib.a(ash.o)
 .text.is_number
                0x000000000041c950       0x38 shell/lib.a(ash.o)
 .text.varcmp   0x000000000041c988       0x4c shell/lib.a(ash.o)
 .text.hashvar  0x000000000041c9d4       0x54 shell/lib.a(ash.o)
 .text.vpcmp    0x000000000041ca28        0xc shell/lib.a(ash.o)
 .text.findvar  0x000000000041ca34       0x5c shell/lib.a(ash.o)
 .text.lookupvar
                0x000000000041ca90       0x58 shell/lib.a(ash.o)
 .text.bltinlookup
                0x000000000041cae8       0x78 shell/lib.a(ash.o)
 .text.set_curjob
                0x000000000041cb60       0x78 shell/lib.a(ash.o)
 .text.jobno    0x000000000041cbd8       0x24 shell/lib.a(ash.o)
 .text.getstatus
                0x000000000041cbfc       0xa0 shell/lib.a(ash.o)
 .text.need_to_remember
                0x000000000041cc9c       0x44 shell/lib.a(ash.o)
 .text.is_hidden_fd
                0x000000000041cce0       0x90 shell/lib.a(ash.o)
 .text.esclen   0x000000000041cd70       0x30 shell/lib.a(ash.o)
 .text.falsecmd
                0x000000000041cda0        0x8 shell/lib.a(ash.o)
 .text.truecmd  0x000000000041cda8        0x8 shell/lib.a(ash.o)
 .text.bltincmd
                0x000000000041cdb0        0xc shell/lib.a(ash.o)
 .text.pungetc  0x000000000041cdbc       0x24 shell/lib.a(ash.o)
 .text.raise_exception
                0x000000000041cde0       0x2c shell/lib.a(ash.o)
 .text.calcsize
                0x000000000041ce0c      0x124 shell/lib.a(ash.o)
 .text.sizenodelist
                0x000000000041cf30       0x4c shell/lib.a(ash.o)
 .text.pushfile
                0x000000000041cf7c       0x34 shell/lib.a(ash.o)
 .text.goodname
                0x000000000041cfb0       0x24 shell/lib.a(ash.o)
 .text.isassignment
                0x000000000041cfd4       0x3c shell/lib.a(ash.o)
 .text.freealias
                0x000000000041d010       0x64 shell/lib.a(ash.o)
 .text.freefunc
                0x000000000041d074       0x28 shell/lib.a(ash.o)
 .text.freeparam
                0x000000000041d09c       0x64 shell/lib.a(ash.o)
 .text.setparam
                0x000000000041d100       0xb8 shell/lib.a(ash.o)
 .text.scanright
                0x000000000041d1b8      0x160 shell/lib.a(ash.o)
 .text.scanleft
                0x000000000041d318       0xb8 shell/lib.a(ash.o)
 .text.__lookupalias
                0x000000000041d3d0       0x94 shell/lib.a(ash.o)
 .text.lookupalias
                0x000000000041d464       0x40 shell/lib.a(ash.o)
 .text.msort    0x000000000041d4a4       0xec shell/lib.a(ash.o)
 .text.pstrcmp  0x000000000041d590        0xc shell/lib.a(ash.o)
 .text.ignoresig
                0x000000000041d59c       0x54 shell/lib.a(ash.o)
 .text.setsignal
                0x000000000041d5f0      0x1d8 shell/lib.a(ash.o)
 .text.nodeckstrdup
                0x000000000041d7c8       0x5c shell/lib.a(ash.o)
 .text.copynode
                0x000000000041d824      0x12c shell/lib.a(ash.o)
 .text.copynodelist
                0x000000000041d950       0x74 shell/lib.a(ash.o)
 .text.cmdlookup
                0x000000000041d9c4       0xf0 shell/lib.a(ash.o)
 .text.noclobberopen
                0x000000000041dab4       0xf0 shell/lib.a(ash.o)
 .text.errmsg   0x000000000041dba4       0x2c shell/lib.a(ash.o)
 .text.tokname  0x000000000041dbd0       0x5c shell/lib.a(ash.o)
 .text.findkwd  0x000000000041dc2c       0x34 shell/lib.a(ash.o)
 .text.find_builtin
                0x000000000041dc60       0x34 shell/lib.a(ash.o)
 .text.ulimitcmd
                0x000000000041dc94        0x8 shell/lib.a(ash.o)
 .text.printfcmd
                0x000000000041dc9c        0x8 shell/lib.a(ash.o)
 .text.tryexec  0x000000000041dca4      0x110 shell/lib.a(ash.o)
 .text.echocmd  0x000000000041ddb4        0x8 shell/lib.a(ash.o)
 .text.testcmd  0x000000000041ddbc        0x8 shell/lib.a(ash.o)
 .text.raise_interrupt
                0x000000000041ddc4       0x74 shell/lib.a(ash.o)
 .text.int_on   0x000000000041de38       0x44 shell/lib.a(ash.o)
 .text.recordregion
                0x000000000041de7c       0xa0 shell/lib.a(ash.o)
 .text.fmtstr   0x000000000041df1c       0x50 shell/lib.a(ash.o)
 .text.sprint_status
                0x000000000041df6c      0x108 shell/lib.a(ash.o)
 .text.removerecordregions
                0x000000000041e074      0x15c shell/lib.a(ash.o)
 .text.freejob  0x000000000041e1d0       0xc0 shell/lib.a(ash.o)
 .text.makejob  0x000000000041e290      0x1d4 shell/lib.a(ash.o)
 .text.unalias  0x000000000041e464       0x5c shell/lib.a(ash.o)
 .text.popstring
                0x000000000041e4c0       0xf4 shell/lib.a(ash.o)
 .text.popfile  0x000000000041e5b4       0x84 shell/lib.a(ash.o)
 .text.popallfiles
                0x000000000041e638       0x44 shell/lib.a(ash.o)
 .text.outstr   0x000000000041e67c       0x2c shell/lib.a(ash.o)
 .text.out1str  0x000000000041e6a8        0xc shell/lib.a(ash.o)
 .text.flush_stdout_stderr
                0x000000000041e6b4       0x2c shell/lib.a(ash.o)
 .text.out2str  0x000000000041e6e0       0x24 shell/lib.a(ash.o)
 .text.stoppedjobs
                0x000000000041e704       0x68 shell/lib.a(ash.o)
 .text.preadbuffer
                0x000000000041e76c      0x270 shell/lib.a(ash.o)
 .text.pgetc    0x000000000041e9dc       0x34 shell/lib.a(ash.o)
 .text.pgetc_without_PEOA
                0x000000000041ea10       0x64 shell/lib.a(ash.o)
 .text.dowait   0x000000000041ea74      0x1b4 shell/lib.a(ash.o)
 .text.blocking_wait_with_raise_on_sig
                0x000000000041ec28       0x44 shell/lib.a(ash.o)
 .text.popstackmark
                0x000000000041ec6c       0xa8 shell/lib.a(ash.o)
 .text.setinputstring
                0x000000000041ed14       0x64 shell/lib.a(ash.o)
 .text.pushstring
                0x000000000041ed78       0xb8 shell/lib.a(ash.o)
 .text.delete_cmd_entry
                0x000000000041ee30       0x64 shell/lib.a(ash.o)
 .text.out1fmt  0x000000000041ee94       0x54 shell/lib.a(ash.o)
 .text.timescmd
                0x000000000041eee8       0xcc shell/lib.a(ash.o)
 .text.helpcmd  0x000000000041efb4       0xc8 shell/lib.a(ash.o)
 .text.clearcmdentry
                0x000000000041f07c       0xcc shell/lib.a(ash.o)
 .text.changepath
                0x000000000041f148      0x144 shell/lib.a(ash.o)
 .text.signal_handler
                0x000000000041f28c       0x6c shell/lib.a(ash.o)
 .text.force_int_on
                0x000000000041f2f8       0x34 shell/lib.a(ash.o)
 .text.evalbltin
                0x000000000041f32c      0x108 shell/lib.a(ash.o)
 .text.outcslow.constprop.1
                0x000000000041f434       0x6c shell/lib.a(ash.o)
 .text.showjob  0x000000000041f4a0      0x238 shell/lib.a(ash.o)
 .text.showjobs
                0x000000000041f6d8       0x8c shell/lib.a(ash.o)
 .text.ash_vmsg
                0x000000000041f764       0xe4 shell/lib.a(ash.o)
 .text.ash_vmsg_and_raise
                0x000000000041f848       0x2c shell/lib.a(ash.o)
 .text.ash_msg_and_raise_error
                0x000000000041f874       0x28 shell/lib.a(ash.o)
 .text.varunset
                0x000000000041f89c       0x78 shell/lib.a(ash.o)
 .text.setvareq
                0x000000000041f914      0x154 shell/lib.a(ash.o)
 .text.listsetvar
                0x000000000041fa68       0x6c shell/lib.a(ash.o)
 .text.setvar   0x000000000041fad4      0x10c shell/lib.a(ash.o)
 .text.setvar2  0x000000000041fbe0        0x8 shell/lib.a(ash.o)
 .text.unsetvar
                0x000000000041fbe8       0xe8 shell/lib.a(ash.o)
 .text.setpwd   0x000000000041fcd0      0x114 shell/lib.a(ash.o)
 .text.localcmd
                0x000000000041fde4      0x184 shell/lib.a(ash.o)
 .text.setvarsafe
                0x000000000041ff68       0xb0 shell/lib.a(ash.o)
 .text.number   0x0000000000420018       0x3c shell/lib.a(ash.o)
 .text.returncmd
                0x0000000000420054       0x38 shell/lib.a(ash.o)
 .text.exitcmd  0x000000000042008c       0x50 shell/lib.a(ash.o)
 .text.getoptsreset
                0x00000000004200dc       0x34 shell/lib.a(ash.o)
 .text.shiftcmd
                0x0000000000420110       0xd4 shell/lib.a(ash.o)
 .text.xtcsetpgrp
                0x00000000004201e4       0x2c shell/lib.a(ash.o)
 .text.waitforjob
                0x0000000000420210       0xc8 shell/lib.a(ash.o)
 .text.forkchild
                0x00000000004202d8      0x310 shell/lib.a(ash.o)
 .text.copyfd   0x00000000004205e8       0x70 shell/lib.a(ash.o)
 .text.popredir
                0x0000000000420658      0x168 shell/lib.a(ash.o)
 .text.clearredir
                0x00000000004207c0       0x50 shell/lib.a(ash.o)
 .text.ash_arith
                0x0000000000420810       0x84 shell/lib.a(ash.o)
 .text.stalloc  0x0000000000420894       0xd4 shell/lib.a(ash.o)
 .text.ststrdup
                0x0000000000420968       0x44 shell/lib.a(ash.o)
 .text.stzalloc
                0x00000000004209ac       0x30 shell/lib.a(ash.o)
 .text.addfname
                0x00000000004209dc       0x54 shell/lib.a(ash.o)
 .text.expmeta  0x0000000000420a30      0x310 shell/lib.a(ash.o)
 .text.makename
                0x0000000000420d40       0x3c shell/lib.a(ash.o)
 .text.growstackblock
                0x0000000000420d7c      0x13c shell/lib.a(ash.o)
 .text.makestrspace
                0x0000000000420eb8       0x68 shell/lib.a(ash.o)
 .text.memtodest
                0x0000000000420f20       0xdc shell/lib.a(ash.o)
 .text.stack_nputstr
                0x0000000000420ffc       0x4c shell/lib.a(ash.o)
 .text.stack_putstr
                0x0000000000421048       0x3c shell/lib.a(ash.o)
 .text.cvtnum   0x0000000000421084       0x70 shell/lib.a(ash.o)
 .text.cmdputs  0x00000000004210f4      0x2dc shell/lib.a(ash.o)
 .text.cmdtxt   0x00000000004213d0      0x398 shell/lib.a(ash.o)
 .text.cmdlist  0x0000000000421768       0x7c shell/lib.a(ash.o)
 .text.single_quote
                0x00000000004217e4      0x110 shell/lib.a(ash.o)
 .text.printalias
                0x00000000004218f4       0x38 shell/lib.a(ash.o)
 .text.aliascmd
                0x000000000042192c      0x1b8 shell/lib.a(ash.o)
 .text.rmescapes
                0x0000000000421ae4      0x1c8 shell/lib.a(ash.o)
 .text.preglob  0x0000000000421cac       0x14 shell/lib.a(ash.o)
 .text.growstackstr
                0x0000000000421cc0       0x68 shell/lib.a(ash.o)
 .text._STPUTC  0x0000000000421d28       0x44 shell/lib.a(ash.o)
 .text.varvalue
                0x0000000000421d6c      0x3ec shell/lib.a(ash.o)
 .text.listvars
                0x0000000000422158       0xf8 shell/lib.a(ash.o)
 .text.showvars
                0x0000000000422250      0x10c shell/lib.a(ash.o)
 .text.path_advance
                0x000000000042235c      0x180 shell/lib.a(ash.o)
 .text.forkshell
                0x00000000004224dc      0x18c shell/lib.a(ash.o)
 .text.raise_error_syntax
                0x0000000000422668       0x18 shell/lib.a(ash.o)
 .text.fixredir
                0x0000000000422680       0xac shell/lib.a(ash.o)
 .text.raise_error_unexpected_syntax
                0x000000000042272c       0x6c shell/lib.a(ash.o)
 .text.nextopt  0x0000000000422798      0x10c shell/lib.a(ash.o)
 .text.cdopt    0x00000000004228a4       0x60 shell/lib.a(ash.o)
 .text.pwdcmd   0x0000000000422904       0x6c shell/lib.a(ash.o)
 .text.unsetcmd
                0x0000000000422970       0xe0 shell/lib.a(ash.o)
 .text.unaliascmd
                0x0000000000422a50      0x138 shell/lib.a(ash.o)
 .text.exportcmd
                0x0000000000422b88      0x150 shell/lib.a(ash.o)
 .text.getjob   0x0000000000422cd8      0x1d0 shell/lib.a(ash.o)
 .text.waitcmd  0x0000000000422ea8      0x184 shell/lib.a(ash.o)
 .text.killcmd  0x000000000042302c      0x168 shell/lib.a(ash.o)
 .text.jobscmd  0x0000000000423194       0xbc shell/lib.a(ash.o)
 .text.fg_bgcmd
                0x0000000000423250      0x1c4 shell/lib.a(ash.o)
 .text.readcmd  0x0000000000423414      0x128 shell/lib.a(ash.o)
 .text.letcmd   0x000000000042353c       0x50 shell/lib.a(ash.o)
 .text.breakcmd
                0x000000000042358c       0xa8 shell/lib.a(ash.o)
 .text.umaskcmd
                0x0000000000423634      0x1fc shell/lib.a(ash.o)
 .text.setinputfile
                0x0000000000423830      0x104 shell/lib.a(ash.o)
 .text.cdcmd    0x0000000000423934      0x438 shell/lib.a(ash.o)
 .text.getoptscmd
                0x0000000000423d6c      0x360 shell/lib.a(ash.o)
 .text.ash_msg_and_raise
                0x00000000004240cc       0x1c shell/lib.a(ash.o)
 .text.shellexec
                0x00000000004240e8      0x140 shell/lib.a(ash.o)
 .text.ash_msg  0x0000000000424228       0x2c shell/lib.a(ash.o)
 .text.setjobctl
                0x0000000000424254      0x1d4 shell/lib.a(ash.o)
 .text.optschanged
                0x0000000000424428       0xa4 shell/lib.a(ash.o)
 .text.execcmd  0x00000000004244cc       0x5c shell/lib.a(ash.o)
 .text.options  0x0000000000424528      0x31c shell/lib.a(ash.o)
 .text.setcmd   0x0000000000424844       0x98 shell/lib.a(ash.o)
 .text.trapcmd  0x00000000004248dc      0x1c4 shell/lib.a(ash.o)
 .text.expandarg
                0x0000000000424aa0      0x4bc shell/lib.a(ash.o)
 .text.expredir
                0x0000000000424f5c       0xf8 shell/lib.a(ash.o)
 .text.redirect
                0x0000000000425054      0x540 shell/lib.a(ash.o)
 .text.redirectsafe
                0x0000000000425594       0xc8 shell/lib.a(ash.o)
 .text.evalsubshell
                0x000000000042565c       0xe8 shell/lib.a(ash.o)
 .text.expandstr
                0x0000000000425744       0x88 shell/lib.a(ash.o)
 .text.setprompt_if
                0x00000000004257cc       0xb8 shell/lib.a(ash.o)
 .text.parseheredoc
                0x0000000000425884       0xc8 shell/lib.a(ash.o)
 .text.list     0x000000000042594c      0x224 shell/lib.a(ash.o)
 .text.readtoken1
                0x0000000000425b70     0x11a0 shell/lib.a(ash.o)
 .text.xxreadtoken
                0x0000000000426d10      0x28c shell/lib.a(ash.o)
 .text.readtoken
                0x0000000000426f9c      0x130 shell/lib.a(ash.o)
 .text.parsefname
                0x00000000004270cc      0x1a4 shell/lib.a(ash.o)
 .text.peektoken
                0x0000000000427270       0x40 shell/lib.a(ash.o)
 .text.parsecmd
                0x00000000004272b0       0x74 shell/lib.a(ash.o)
 .text.evalstring
                0x0000000000427324       0xa4 shell/lib.a(ash.o)
 .text.evaltree
                0x00000000004273c8      0x450 shell/lib.a(ash.o)
 .text.argstr   0x0000000000427818      0x67c shell/lib.a(ash.o)
 .text.subevalvar
                0x0000000000427e94      0x638 shell/lib.a(ash.o)
 .text.evalvar  0x00000000004284cc      0x344 shell/lib.a(ash.o)
 .text.evalloop
                0x0000000000428810      0x138 shell/lib.a(ash.o)
 .text.evalfun  0x0000000000428948      0x264 shell/lib.a(ash.o)
 .text.evalcmd  0x0000000000428bac       0xa8 shell/lib.a(ash.o)
 .text.exitshell
                0x0000000000428c54       0x8c shell/lib.a(ash.o)
 .text.cmdloop  0x0000000000428ce0      0x140 shell/lib.a(ash.o)
 .text.find_command
                0x0000000000428e20      0x44c shell/lib.a(ash.o)
 .text.describe_command
                0x000000000042926c      0x234 shell/lib.a(ash.o)
 .text.typecmd  0x00000000004294a0       0x94 shell/lib.a(ash.o)
 .text.commandcmd
                0x0000000000429534       0x9c shell/lib.a(ash.o)
 .text.hashcmd  0x00000000004295d0      0x1dc shell/lib.a(ash.o)
 .text.evalpipe
                0x00000000004297ac      0x1f0 shell/lib.a(ash.o)
 .text.dotcmd   0x000000000042999c      0x190 shell/lib.a(ash.o)
 .text.read_profile
                0x0000000000429b2c       0x48 shell/lib.a(ash.o)
 .text.parse_command
                0x0000000000429b74      0x748 shell/lib.a(ash.o)
 .text.pipeline
                0x000000000042a2bc      0x11c shell/lib.a(ash.o)
 .text.evalcase
                0x000000000042a3d8      0x188 shell/lib.a(ash.o)
 .text.evalfor  0x000000000042a560      0x15c shell/lib.a(ash.o)
 .text.evalcommand
                0x000000000042a6bc      0x5c0 shell/lib.a(ash.o)
 .text.ash_main
                0x000000000042ac7c      0x5cc shell/lib.a(ash.o)
                0x000000000042ac7c                ash_main
 .text.endofname
                0x000000000042b248       0x70 shell/lib.a(math.o)
                0x000000000042b248                endofname
 .text.evaluate_string
                0x000000000042b2b8      0x3b0 shell/lib.a(math.o)
 .text.arith_lookup_val
                0x000000000042b668       0xdc shell/lib.a(math.o)
 .text.arith_apply
                0x000000000042b744      0x5ac shell/lib.a(math.o)
 .text.arith    0x000000000042bcf0        0xc shell/lib.a(math.o)
                0x000000000042bcf0                arith
 .text.printlim.isra.0
                0x000000000042bcfc       0x74 shell/lib.a(shell_common.o)
 .text.is_well_formed_var_name
                0x000000000042bd70       0x6c shell/lib.a(shell_common.o)
                0x000000000042bd70                is_well_formed_var_name
 .text.shell_builtin_read
                0x000000000042bddc      0x534 shell/lib.a(shell_common.o)
                0x000000000042bddc                shell_builtin_read
 .text.shell_builtin_ulimit
                0x000000000042c310      0x27c shell/lib.a(shell_common.o)
                0x000000000042c310                shell_builtin_ulimit
 .text.decode   0x000000000042c58c       0x7c sysklogd/lib.a(syslogd_and_logger.o)
 .text.logger_main
                0x000000000042c608      0x22c sysklogd/lib.a(syslogd_and_logger.o)
                0x000000000042c608                logger_main
 .text.dmesg_main
                0x000000000042c834      0x1b4 util-linux/lib.a(dmesg.o)
                0x000000000042c834                dmesg_main
 .text.hexdump_main
                0x000000000042c9e8      0x244 util-linux/lib.a(hexdump.o)
                0x000000000042c9e8                hexdump_main
 .text.read_rtc
                0x000000000042cc2c       0x40 util-linux/lib.a(hwclock.o)
 .text.hwclock_main
                0x000000000042cc6c      0x208 util-linux/lib.a(hwclock.o)
                0x000000000042cc6c                hwclock_main
 .text.mkswap_main
                0x000000000042ce74      0x174 util-linux/lib.a(mkswap.o)
                0x000000000042ce74                mkswap_main
 .text.parse_mount_options
                0x000000000042cfe8      0x15c util-linux/lib.a(mount.o)
 .text.append_mount_options
                0x000000000042d144      0x148 util-linux/lib.a(mount.o)
 .text.mount_it_now
                0x000000000042d28c      0x194 util-linux/lib.a(mount.o)
 .text.singlemount
                0x000000000042d420      0x474 util-linux/lib.a(mount.o)
 .text.mount_main
                0x000000000042d894      0x548 util-linux/lib.a(mount.o)
                0x000000000042d894                mount_main
 .text.pivot_root_main
                0x000000000042dddc       0x40 util-linux/lib.a(pivot_root.o)
                0x000000000042dddc                pivot_root_main
 .text.swap_enable_disable
                0x000000000042de1c       0x70 util-linux/lib.a(swaponoff.o)
 .text.swap_on_off_main
                0x000000000042de8c      0x134 util-linux/lib.a(swaponoff.o)
                0x000000000042de8c                swap_on_off_main
 .text.delete_contents
                0x000000000042dfc0      0x124 util-linux/lib.a(switch_root.o)
 .text.switch_root_main
                0x000000000042e0e4      0x1c8 util-linux/lib.a(switch_root.o)
                0x000000000042e0e4                switch_root_main
 .text.umount_main
                0x000000000042e2ac      0x348 util-linux/lib.a(umount.o)
                0x000000000042e2ac                umount_main
 .text.make_new_name_generic
                0x000000000042e5f4       0x68 archival/lib.a(bbunzip.o)
 .text.unpack_bunzip2
                0x000000000042e65c        0xc archival/lib.a(bbunzip.o)
 .text.make_new_name_gunzip
                0x000000000042e668       0xac archival/lib.a(bbunzip.o)
 .text.unpack_gunzip
                0x000000000042e714       0x84 archival/lib.a(bbunzip.o)
 .text.open_to_or_warn
                0x000000000042e798       0x48 archival/lib.a(bbunzip.o)
 .text.append_ext
                0x000000000042e7e0       0x18 archival/lib.a(bbunzip.o)
                0x000000000042e7e0                append_ext
 .text.bbunpack
                0x000000000042e7f8      0x2a4 archival/lib.a(bbunzip.o)
                0x000000000042e7f8                bbunpack
 .text.gunzip_main
                0x000000000042ea9c       0x78 archival/lib.a(bbunzip.o)
                0x000000000042ea9c                gunzip_main
 .text.bunzip2_main
                0x000000000042eb14       0x7c archival/lib.a(bbunzip.o)
                0x000000000042eb14                bunzip2_main
 .text.bi_reverse
                0x000000000042eb90       0x28 archival/lib.a(gzip.o)
 .text.init_block
                0x000000000042ebb8       0x78 archival/lib.a(gzip.o)
 .text.pqdownheap
                0x000000000042ec30      0x104 archival/lib.a(gzip.o)
 .text.gen_codes
                0x000000000042ed34       0xb0 archival/lib.a(gzip.o)
 .text.build_tree
                0x000000000042ede4      0x49c archival/lib.a(gzip.o)
 .text.scan_tree
                0x000000000042f280      0x12c archival/lib.a(gzip.o)
 .text.ct_tally
                0x000000000042f3ac      0x1a0 archival/lib.a(gzip.o)
 .text.file_read
                0x000000000042f54c       0x84 archival/lib.a(gzip.o)
 .text.fill_window
                0x000000000042f5d0      0x150 archival/lib.a(gzip.o)
 .text.flush_outbuf
                0x000000000042f720       0x40 archival/lib.a(gzip.o)
 .text.put_16bit
                0x000000000042f760       0xbc archival/lib.a(gzip.o)
 .text.send_bits
                0x000000000042f81c       0x9c archival/lib.a(gzip.o)
 .text.send_tree
                0x000000000042f8b8      0x1d0 archival/lib.a(gzip.o)
 .text.compress_block
                0x000000000042fa88      0x1b0 archival/lib.a(gzip.o)
 .text.put_32bit
                0x000000000042fc38       0x2c archival/lib.a(gzip.o)
 .text.bi_windup
                0x000000000042fc64       0x80 archival/lib.a(gzip.o)
 .text.flush_block
                0x000000000042fce4      0x2cc archival/lib.a(gzip.o)
 .text.pack_gzip
                0x000000000042ffb0      0x8bc archival/lib.a(gzip.o)
 .text.gzip_main
                0x000000000043086c      0x100 archival/lib.a(gzip.o)
                0x000000000043086c                gzip_main
 .text.gnu_dev_major
                0x000000000043096c       0x14 archival/lib.a(tar.o)
 .text.gnu_dev_minor
                0x0000000000430980       0x20 archival/lib.a(tar.o)
 .text.append_file_list_to_list
                0x00000000004309a0       0x94 archival/lib.a(tar.o)
 .text.vfork_compressor
                0x0000000000430a34      0x11c archival/lib.a(tar.o)
 .text.writeTarFile
                0x0000000000430b50      0x160 archival/lib.a(tar.o)
 .text.putOctal
                0x0000000000430cb0       0x70 archival/lib.a(tar.o)
 .text.chksum_and_xwrite
                0x0000000000430d20       0x94 archival/lib.a(tar.o)
 .text.writeLongname
                0x0000000000430db4      0x104 archival/lib.a(tar.o)
 .text.writeTarHeader
                0x0000000000430eb8      0x3a4 archival/lib.a(tar.o)
 .text.writeFileToTarball
                0x000000000043125c      0x308 archival/lib.a(tar.o)
 .text.tar_main
                0x0000000000431564      0x308 archival/lib.a(tar.o)
                0x0000000000431564                tar_main
 .text.data_extract_all
                0x000000000043186c      0x420 archival/libarchive/lib.a(data_extract_all.o)
                0x000000000043186c                data_extract_all
 .text.data_extract_to_stdout
                0x0000000000431c8c       0x18 archival/libarchive/lib.a(data_extract_to_stdout.o)
                0x0000000000431c8c                data_extract_to_stdout
 .text.data_skip
                0x0000000000431ca4       0x18 archival/libarchive/lib.a(data_skip.o)
                0x0000000000431ca4                data_skip
 .text.get_bits
                0x0000000000431cbc      0x10c archival/libarchive/lib.a(decompress_bunzip2.o)
 .text.get_next_block
                0x0000000000431dc8      0x7ec archival/libarchive/lib.a(decompress_bunzip2.o)
 .text.read_bunzip
                0x00000000004325b4      0x188 archival/libarchive/lib.a(decompress_bunzip2.o)
                0x00000000004325b4                read_bunzip
 .text.start_bunzip
                0x000000000043273c      0x128 archival/libarchive/lib.a(decompress_bunzip2.o)
                0x000000000043273c                start_bunzip
 .text.dealloc_bunzip
                0x0000000000432864       0x2c archival/libarchive/lib.a(decompress_bunzip2.o)
                0x0000000000432864                dealloc_bunzip
 .text.unpack_bz2_stream
                0x0000000000432890      0x1a0 archival/libarchive/lib.a(decompress_bunzip2.o)
                0x0000000000432890                unpack_bz2_stream
 .text.unpack_bz2_stream_prime
                0x0000000000432a30       0x5c archival/libarchive/lib.a(decompress_bunzip2.o)
                0x0000000000432a30                unpack_bz2_stream_prime
 .text.inflate_codes_setup
                0x0000000000432a8c       0x4c archival/libarchive/lib.a(decompress_unzip.o)
 .text.buffer_read_le_u32
                0x0000000000432ad8       0x40 archival/libarchive/lib.a(decompress_unzip.o)
 .text.huft_free
                0x0000000000432b18       0x34 archival/libarchive/lib.a(decompress_unzip.o)
 .text.huft_free_all
                0x0000000000432b4c       0x38 archival/libarchive/lib.a(decompress_unzip.o)
 .text.huft_build
                0x0000000000432b84      0x524 archival/libarchive/lib.a(decompress_unzip.o)
 .text.abort_unzip
                0x00000000004330a8       0x20 archival/libarchive/lib.a(decompress_unzip.o)
 .text.fill_bitbuffer
                0x00000000004330c8      0x12c archival/libarchive/lib.a(decompress_unzip.o)
 .text.inflate_block
                0x00000000004331f4      0x6a4 archival/libarchive/lib.a(decompress_unzip.o)
 .text.inflate_codes
                0x0000000000433898      0x3c8 archival/libarchive/lib.a(decompress_unzip.o)
 .text.calculate_gunzip_crc
                0x0000000000433c60       0x58 archival/libarchive/lib.a(decompress_unzip.o)
 .text.inflate_unzip_internal
                0x0000000000433cb8      0x2e4 archival/libarchive/lib.a(decompress_unzip.o)
 .text.top_up   0x0000000000433f9c       0xa4 archival/libarchive/lib.a(decompress_unzip.o)
 .text.unpack_gz_stream_with_info
                0x0000000000434040      0x2f4 archival/libarchive/lib.a(decompress_unzip.o)
                0x0000000000434040                unpack_gz_stream_with_info
 .text.unpack_gz_stream
                0x0000000000434334        0x8 archival/libarchive/lib.a(decompress_unzip.o)
                0x0000000000434334                unpack_gz_stream
 .text.filter_accept_reject_list
                0x000000000043433c       0x64 archival/libarchive/lib.a(filter_accept_reject_list.o)
                0x000000000043433c                filter_accept_reject_list
 .text.find_list_entry
                0x00000000004343a0       0x54 archival/libarchive/lib.a(find_list_entry.o)
                0x00000000004343a0                find_list_entry
 .text.find_list_entry2
                0x00000000004343f4       0xdc archival/libarchive/lib.a(find_list_entry.o)
                0x00000000004343f4                find_list_entry2
 .text.getOctal
                0x00000000004344d0       0xa8 archival/libarchive/lib.a(get_header_tar.o)
 .text.strip_unsafe_prefix
                0x0000000000434578       0xd0 archival/libarchive/lib.a(get_header_tar.o)
                0x0000000000434578                strip_unsafe_prefix
 .text.get_header_tar
                0x0000000000434648      0x61c archival/libarchive/lib.a(get_header_tar.o)
                0x0000000000434648                get_header_tar
 .text.get_header_tar_gz
                0x0000000000434c64       0x88 archival/libarchive/lib.a(get_header_tar_gz.o)
                0x0000000000434c64                get_header_tar_gz
 .text.header_list
                0x0000000000434cec        0x8 archival/libarchive/lib.a(header_list.o)
                0x0000000000434cec                header_list
 .text.header_verbose_list
                0x0000000000434cf4       0xb8 archival/libarchive/lib.a(header_verbose_list.o)
                0x0000000000434cf4                header_verbose_list
 .text.init_handle
                0x0000000000434dac       0x68 archival/libarchive/lib.a(init_handle.o)
                0x0000000000434dac                init_handle
 .text.open_transformer
                0x0000000000434e14       0x78 archival/libarchive/lib.a(open_transformer.o)
                0x0000000000434e14                open_transformer
 .text.seek_by_jump
                0x0000000000434e8c       0xa0 archival/libarchive/lib.a(seek_by_jump.o)
                0x0000000000434e8c                seek_by_jump
 .text.seek_by_read
                0x0000000000434f2c       0x1c archival/libarchive/lib.a(seek_by_read.o)
                0x0000000000434f2c                seek_by_read
 .text.data_align
                0x0000000000434f48       0x90 archival/libarchive/lib.a(data_align.o)
                0x0000000000434f48                data_align
 .text.filter_accept_all
                0x0000000000434fd8       0x10 archival/libarchive/lib.a(filter_accept_all.o)
                0x0000000000434fd8                filter_accept_all
 .text.header_skip
                0x0000000000434fe8        0x8 archival/libarchive/lib.a(header_skip.o)
                0x0000000000434fe8                header_skip
 .text.clear_main
                0x0000000000434ff0       0x28 console-tools/lib.a(clear.o)
                0x0000000000434ff0                clear_main
 .text.reset_main
                0x0000000000435018       0x44 console-tools/lib.a(reset.o)
                0x0000000000435018                reset_main
 .text.basename_main
                0x000000000043505c       0xe4 coreutils/lib.a(basename.o)
                0x000000000043505c                basename_main
 .text.bb_cat   0x0000000000435140       0x9c coreutils/lib.a(cat.o)
                0x0000000000435140                bb_cat
 .text.cat_main
                0x00000000004351dc       0x40 coreutils/lib.a(cat.o)
                0x00000000004351dc                cat_main
 .text.chgrp_main
                0x000000000043521c       0x74 coreutils/lib.a(chgrp.o)
                0x000000000043521c                chgrp_main
 .text.fileAction
                0x0000000000435290       0xb4 coreutils/lib.a(chmod.o)
 .text.chmod_main
                0x0000000000435344      0x138 coreutils/lib.a(chmod.o)
                0x0000000000435344                chmod_main
 .text.fileAction
                0x000000000043547c       0x70 coreutils/lib.a(chown.o)
 .text.chown_main
                0x00000000004354ec      0x108 coreutils/lib.a(chown.o)
                0x00000000004354ec                chown_main
 .text.chroot_main
                0x00000000004355f4       0x68 coreutils/lib.a(chroot.o)
                0x00000000004355f4                chroot_main
 .text.cp_main  0x000000000043565c      0x174 coreutils/lib.a(cp.o)
                0x000000000043565c                cp_main
 .text.cmpfunc  0x00000000004357d0       0x10 coreutils/lib.a(cut.o)
 .text.cut_main
                0x00000000004357e0      0x524 coreutils/lib.a(cut.o)
                0x00000000004357e0                cut_main
 .text.maybe_set_utc
                0x0000000000435d04       0x20 coreutils/lib.a(date.o)
 .text.date_main
                0x0000000000435d24      0x368 coreutils/lib.a(date.o)
                0x0000000000435d24                date_main
 .text.full_write_or_warn
                0x000000000043608c       0x5c coreutils/lib.a(dd.o)
 .text.write_and_stats
                0x00000000004360e8       0xb4 coreutils/lib.a(dd.o)
 .text.dd_output_status
                0x000000000043619c       0x88 coreutils/lib.a(dd.o)
 .text.dd_main  0x0000000000436224      0x6b4 coreutils/lib.a(dd.o)
                0x0000000000436224                dd_main
 .text.df_main  0x00000000004368d8      0x33c coreutils/lib.a(df.o)
                0x00000000004368d8                df_main
 .text.dirname_main
                0x0000000000436c14       0x2c coreutils/lib.a(dirname.o)
                0x0000000000436c14                dirname_main
 .text.print    0x0000000000436c40       0x54 coreutils/lib.a(du.o)
 .text.du       0x0000000000436c94      0x288 coreutils/lib.a(du.o)
 .text.du_main  0x0000000000436f1c      0x1c4 coreutils/lib.a(du.o)
                0x0000000000436f1c                du_main
 .text.echo_main
                0x00000000004370e0      0x208 coreutils/lib.a(echo.o)
                0x00000000004370e0                echo_main
 .text.env_main
                0x00000000004372e8      0x138 coreutils/lib.a(env.o)
                0x00000000004372e8                env_main
 .text.null     0x0000000000437420       0x44 coreutils/lib.a(expr.o)
 .text.tostring
                0x0000000000437464       0x48 coreutils/lib.a(expr.o)
 .text.int_value
                0x00000000004374ac       0x3c coreutils/lib.a(expr.o)
 .text.str_value
                0x00000000004374e8       0x4c coreutils/lib.a(expr.o)
 .text.docolon  0x0000000000437534      0x128 coreutils/lib.a(expr.o)
 .text.toarith  0x000000000043765c       0x88 coreutils/lib.a(expr.o)
 .text.arithmetic_common
                0x00000000004376e4      0x11c coreutils/lib.a(expr.o)
 .text.freev    0x0000000000437800       0x38 coreutils/lib.a(expr.o)
 .text.nextarg  0x0000000000437838       0x64 coreutils/lib.a(expr.o)
 .text.eval     0x000000000043789c       0xa4 coreutils/lib.a(expr.o)
 .text.eval6    0x0000000000437940      0x354 coreutils/lib.a(expr.o)
 .text.eval5    0x0000000000437c94       0xa8 coreutils/lib.a(expr.o)
 .text.eval4    0x0000000000437d3c      0x100 coreutils/lib.a(expr.o)
 .text.eval3    0x0000000000437e3c       0xf0 coreutils/lib.a(expr.o)
 .text.eval2    0x0000000000437f2c      0x278 coreutils/lib.a(expr.o)
 .text.eval1    0x00000000004381a4       0xc8 coreutils/lib.a(expr.o)
 .text.expr_main
                0x000000000043826c       0xb0 coreutils/lib.a(expr.o)
                0x000000000043826c                expr_main
 .text.false_main
                0x000000000043831c        0x8 coreutils/lib.a(false.o)
                0x000000000043831c                false_main
 .text.fsync_main
                0x0000000000438324       0xf8 coreutils/lib.a(fsync.o)
                0x0000000000438324                fsync_main
 .text.head_main
                0x000000000043841c      0x284 coreutils/lib.a(head.o)
                0x000000000043841c                head_main
 .text.hostid_main
                0x00000000004386a0       0x40 coreutils/lib.a(hostid.o)
                0x00000000004386a0                hostid_main
 .text.get_groups
                0x00000000004386e0       0x8c coreutils/lib.a(id.o)
 .text.print_common
                0x000000000043876c       0xb4 coreutils/lib.a(id.o)
 .text.print_user
                0x0000000000438820       0x3c coreutils/lib.a(id.o)
 .text.print_group
                0x000000000043885c       0x3c coreutils/lib.a(id.o)
 .text.id_main  0x0000000000438898      0x290 coreutils/lib.a(id.o)
                0x0000000000438898                id_main
 .text.ln_main  0x0000000000438b28      0x270 coreutils/lib.a(ln.o)
                0x0000000000438b28                ln_main
 .text.fgcolor  0x0000000000438d98       0x34 coreutils/lib.a(ls.o)
 .text.bold     0x0000000000438dcc       0x34 coreutils/lib.a(ls.o)
 .text.append_char
                0x0000000000438e00       0x68 coreutils/lib.a(ls.o)
 .text.count_dirs
                0x0000000000438e68       0x84 coreutils/lib.a(ls.o)
 .text.dnalloc  0x0000000000438eec       0x18 coreutils/lib.a(ls.o)
 .text.splitdnarray
                0x0000000000438f04       0xd4 coreutils/lib.a(ls.o)
 .text.my_stat  0x0000000000438fd8      0x174 coreutils/lib.a(ls.o)
 .text.print_name
                0x000000000043914c      0x17c coreutils/lib.a(ls.o)
 .text.display_single
                0x00000000004392c8      0x528 coreutils/lib.a(ls.o)
 .text.dnsort   0x00000000004397f0       0x10 coreutils/lib.a(ls.o)
 .text.sort_and_display_files
                0x0000000000439800      0x260 coreutils/lib.a(ls.o)
 .text.sortcmp  0x0000000000439a60      0x180 coreutils/lib.a(ls.o)
 .text.scan_and_display_dirs_recur
                0x0000000000439be0      0x28c coreutils/lib.a(ls.o)
 .text.ls_main  0x0000000000439e6c      0x4a0 coreutils/lib.a(ls.o)
                0x0000000000439e6c                ls_main
 .text.hash_file
                0x000000000043a30c       0xd4 coreutils/lib.a(md5_sha1_sum.o)
 .text.md5_sha1_sum_main
                0x000000000043a3e0      0x25c coreutils/lib.a(md5_sha1_sum.o)
                0x000000000043a3e0                md5_sha1_sum_main
 .text.mkdir_main
                0x000000000043a63c       0xe4 coreutils/lib.a(mkdir.o)
                0x000000000043a63c                mkdir_main
 .text.mkfifo_main
                0x000000000043a720       0x90 coreutils/lib.a(mkfifo.o)
                0x000000000043a720                mkfifo_main
 .text.mknod_main
                0x000000000043a7b0      0x128 coreutils/lib.a(mknod.o)
                0x000000000043a7b0                mknod_main
 .text.mv_main  0x000000000043a8d8      0x298 coreutils/lib.a(mv.o)
                0x000000000043a8d8                mv_main
 .text.nice_main
                0x000000000043ab70       0xf0 coreutils/lib.a(nice.o)
                0x000000000043ab70                nice_main
 .text.get_width_prec
                0x000000000043ac60       0x50 coreutils/lib.a(printf.o)
 .text.multiconvert
                0x000000000043acb0       0xa0 coreutils/lib.a(printf.o)
 .text.print_direc
                0x000000000043ad50      0x2ac coreutils/lib.a(printf.o)
 .text.conv_strtoll
                0x000000000043affc       0x34 coreutils/lib.a(printf.o)
 .text.conv_strtoull
                0x000000000043b030       0x68 coreutils/lib.a(printf.o)
 .text.conv_strtod
                0x000000000043b098       0x54 coreutils/lib.a(printf.o)
 .text.printf_main
                0x000000000043b0ec      0x478 coreutils/lib.a(printf.o)
                0x000000000043b0ec                printf_main
 .text.pwd_main
                0x000000000043b564       0x50 coreutils/lib.a(pwd.o)
                0x000000000043b564                pwd_main
 .text.readlink_main
                0x000000000043b5b4       0xcc coreutils/lib.a(readlink.o)
                0x000000000043b5b4                readlink_main
 .text.rm_main  0x000000000043b680      0x140 coreutils/lib.a(rm.o)
                0x000000000043b680                rm_main
 .text.rmdir_main
                0x000000000043b7c0       0xec coreutils/lib.a(rmdir.o)
                0x000000000043b7c0                rmdir_main
 .text.seq_main
                0x000000000043b8ac      0x2e0 coreutils/lib.a(seq.o)
                0x000000000043b8ac                seq_main
 .text.sleep_main
                0x000000000043bb8c       0x80 coreutils/lib.a(sleep.o)
                0x000000000043bb8c                sleep_main
 .text.compare_keys
                0x000000000043bc0c       0xb0 coreutils/lib.a(sort.o)
 .text.sort_main
                0x000000000043bcbc      0x200 coreutils/lib.a(sort.o)
                0x000000000043bcbc                sort_main
 .text.sync_main
                0x000000000043bebc       0x20 coreutils/lib.a(sync.o)
                0x000000000043bebc                sync_main
 .text.eat_num  0x000000000043bedc       0x38 coreutils/lib.a(tail.o)
 .text.tail_xprint_header
                0x000000000043bf14       0x34 coreutils/lib.a(tail.o)
 .text.tail_read
                0x000000000043bf48       0xe4 coreutils/lib.a(tail.o)
 .text.tail_main
                0x000000000043c02c      0x730 coreutils/lib.a(tail.o)
                0x000000000043c02c                tail_main
 .text.tee_main
                0x000000000043c75c      0x1d0 coreutils/lib.a(tee.o)
                0x000000000043c75c                tee_main
 .text.check_operator
                0x000000000043c92c       0x6c coreutils/lib.a(test.o)
 .text.syntax   0x000000000043c998       0x5c coreutils/lib.a(test.o)
 .text.getn     0x000000000043c9f4       0xa8 coreutils/lib.a(test.o)
 .text.binop    0x000000000043ca9c      0x270 coreutils/lib.a(test.o)
 .text.filstat  0x000000000043cd0c      0x2b0 coreutils/lib.a(test.o)
 .text.nexpr    0x000000000043cfbc      0x1e8 coreutils/lib.a(test.o)
 .text.aexpr    0x000000000043d1a4       0xa8 coreutils/lib.a(test.o)
 .text.oexpr    0x000000000043d24c       0xa8 coreutils/lib.a(test.o)
 .text.test_main
                0x000000000043d2f4      0x15c coreutils/lib.a(test.o)
                0x000000000043d2f4                test_main
 .text.touch_main
                0x000000000043d450       0xec coreutils/lib.a(touch.o)
                0x000000000043d450                touch_main
 .text.complement
                0x000000000043d53c       0xa0 coreutils/lib.a(tr.o)
 .text.expand   0x000000000043d5dc      0x130 coreutils/lib.a(tr.o)
 .text.tr_main  0x000000000043d70c      0x294 coreutils/lib.a(tr.o)
                0x000000000043d70c                tr_main
 .text.true_main
                0x000000000043d9a0        0x8 coreutils/lib.a(true.o)
                0x000000000043d9a0                true_main
 .text.uname_main
                0x000000000043d9a8      0x124 coreutils/lib.a(uname.o)
                0x000000000043d9a8                uname_main
 .text.uniq_main
                0x000000000043dacc      0x21c coreutils/lib.a(uniq.o)
                0x000000000043dacc                uniq_main
 .text.wc_main  0x000000000043dce8      0x2ec coreutils/lib.a(wc.o)
                0x000000000043dce8                wc_main
 .text.yes_main
                0x000000000043dfd4       0xf4 coreutils/lib.a(yes.o)
                0x000000000043dfd4                yes_main
 .text.cp_mv_stat2
                0x000000000043e0c8       0x80 coreutils/libcoreutils/lib.a(cp_mv_stat.o)
                0x000000000043e0c8                cp_mv_stat2
 .text.cp_mv_stat
                0x000000000043e148        0xc coreutils/libcoreutils/lib.a(cp_mv_stat.o)
                0x000000000043e148                cp_mv_stat
 .text.getopt_mk_fifo_nod
                0x000000000043e154       0x5c coreutils/libcoreutils/lib.a(getopt_mk_fifo_nod.o)
                0x000000000043e154                getopt_mk_fifo_nod
 .text.mktemp_main
                0x000000000043e1b0      0x108 debianutils/lib.a(mktemp.o)
                0x000000000043e1b0                mktemp_main
 .text.check    0x000000000043e2b8      0x1a8 debianutils/lib.a(start_stop_daemon.o)
 .text.start_stop_daemon_main
                0x000000000043e460      0x534 debianutils/lib.a(start_stop_daemon.o)
                0x000000000043e460                start_stop_daemon_main
 .text.which_main
                0x000000000043e994      0x118 debianutils/lib.a(which.o)
                0x000000000043e994                which_main
 .text.hashidx  0x000000000043eaac       0x28 editors/lib.a(awk.o)
 .text.skip_spaces
                0x000000000043ead4       0x68 editors/lib.a(awk.o)
 .text.nextword
                0x000000000043eb3c       0x20 editors/lib.a(awk.o)
 .text.rollback_token
                0x000000000043eb5c       0x14 editors/lib.a(awk.o)
 .text.nextarg  0x000000000043eb70       0x38 editors/lib.a(awk.o)
 .text.hash_init
                0x000000000043eba8       0x40 editors/lib.a(awk.o)
 .text.iamarray
                0x000000000043ebe8       0x50 editors/lib.a(awk.o)
 .text.new_node
                0x000000000043ec38       0x3c editors/lib.a(awk.o)
 .text.nvalloc  0x000000000043ec74      0x118 editors/lib.a(awk.o)
 .text.qrealloc
                0x000000000043ed8c       0x34 editors/lib.a(awk.o)
 .text.clrvar   0x000000000043edc0       0x4c editors/lib.a(awk.o)
 .text.fsrealloc
                0x000000000043ee0c       0xd8 editors/lib.a(awk.o)
 .text.clear_array
                0x000000000043eee4       0xa0 editors/lib.a(awk.o)
 .text.zero_out_var
                0x000000000043ef84        0xc editors/lib.a(awk.o)
 .text.chain_node
                0x000000000043ef90       0xb0 editors/lib.a(awk.o)
 .text.mk_re_node
                0x000000000043f040       0x58 editors/lib.a(awk.o)
 .text.mk_splitter
                0x000000000043f098       0x8c editors/lib.a(awk.o)
 .text.my_strtod
                0x000000000043f124        0xc editors/lib.a(awk.o)
 .text.getvar_i
                0x000000000043f130       0xb8 editors/lib.a(awk.o)
 .text.is_numeric
                0x000000000043f1e8       0x30 editors/lib.a(awk.o)
 .text.istrue   0x000000000043f218       0x58 editors/lib.a(awk.o)
 .text.getvar_i_int
                0x000000000043f270       0x74 editors/lib.a(awk.o)
 .text.hash_search
                0x000000000043f2e4       0x78 editors/lib.a(awk.o)
 .text.hash_find
                0x000000000043f35c      0x19c editors/lib.a(awk.o)
 .text.hash_remove
                0x000000000043f4f8       0xd0 editors/lib.a(awk.o)
 .text.nextchar
                0x000000000043f5c8       0x7c editors/lib.a(awk.o)
 .text.do_mktime
                0x000000000043f644       0x98 editors/lib.a(awk.o)
 .text.syntax_error
                0x000000000043f6dc       0x28 editors/lib.a(awk.o)
 .text.fmt_num  0x000000000043f704      0x14c editors/lib.a(awk.o)
 .text.getvar_s
                0x000000000043f850       0xa8 editors/lib.a(awk.o)
 .text.handle_special
                0x000000000043f8f8      0x230 editors/lib.a(awk.o)
 .text.setvar_p
                0x000000000043fb28       0x40 editors/lib.a(awk.o)
 .text.setvar_s
                0x000000000043fb68       0x48 editors/lib.a(awk.o)
 .text.setvar_u
                0x000000000043fbb0       0x28 editors/lib.a(awk.o)
 .text.is_assignment
                0x000000000043fbd8       0xdc editors/lib.a(awk.o)
 .text.setari_u
                0x000000000043fcb4       0x58 editors/lib.a(awk.o)
 .text.setvar_i
                0x000000000043fd0c       0x5c editors/lib.a(awk.o)
 .text.incvar   0x000000000043fd68       0x48 editors/lib.a(awk.o)
 .text.awk_getline
                0x000000000043fdb0      0x328 editors/lib.a(awk.o)
 .text.copyvar  0x00000000004400d8       0x84 editors/lib.a(awk.o)
 .text.awk_split
                0x000000000044015c      0x2f0 editors/lib.a(awk.o)
 .text.split_f0
                0x000000000044044c      0x104 editors/lib.a(awk.o)
 .text.next_input_file
                0x0000000000440550      0x174 editors/lib.a(awk.o)
 .text.next_token
                0x00000000004406c4      0x488 editors/lib.a(awk.o)
 .text.parse_expr
                0x0000000000440b4c      0x3ac editors/lib.a(awk.o)
 .text.condition
                0x0000000000440ef8       0x20 editors/lib.a(awk.o)
 .text.chain_expr
                0x0000000000440f18       0x50 editors/lib.a(awk.o)
 .text.chain_group
                0x0000000000440f68      0x364 editors/lib.a(awk.o)
 .text.parse_program
                0x00000000004412cc      0x1d4 editors/lib.a(awk.o)
 .text.chain_loop
                0x00000000004414a0       0xbc editors/lib.a(awk.o)
 .text.nvfree   0x000000000044155c      0x128 editors/lib.a(awk.o)
 .text.awk_exit
                0x0000000000441684       0xb8 editors/lib.a(awk.o)
 .text.evaluate
                0x000000000044173c     0x1170 editors/lib.a(awk.o)
 .text.as_regex
                0x00000000004428ac       0xe0 editors/lib.a(awk.o)
 .text.awk_sub  0x000000000044298c      0x2a4 editors/lib.a(awk.o)
 .text.exec_builtin
                0x0000000000442c30      0x6bc editors/lib.a(awk.o)
 .text.awk_printf
                0x00000000004432ec      0x26c editors/lib.a(awk.o)
 .text.ptest    0x0000000000443558       0x28 editors/lib.a(awk.o)
 .text.include  0x0000000000443580      0x330 editors/lib.a(awk.o)
 .text.awk_main
                0x00000000004438b0      0x4c4 editors/lib.a(awk.o)
                0x00000000004438b0                awk_main
 .text.cmp_main
                0x0000000000443d74      0x2a8 editors/lib.a(cmp.o)
                0x0000000000443d74                cmp_main
 .text.parse_escapes
                0x000000000044401c       0x74 editors/lib.a(sed.o)
 .text.index_of_next_unescaped_regexp_delim
                0x0000000000444090       0xd8 editors/lib.a(sed.o)
 .text.copy_parsing_escapes
                0x0000000000444168       0x8c editors/lib.a(sed.o)
 .text.parse_regex_delim
                0x00000000004441f4       0xb8 editors/lib.a(sed.o)
 .text.get_address
                0x00000000004442ac      0x11c editors/lib.a(sed.o)
 .text.parse_file_cmd
                0x00000000004443c8       0xcc editors/lib.a(sed.o)
 .text.add_cmd  0x0000000000444494      0x690 editors/lib.a(sed.o)
 .text.add_cmd_block
                0x0000000000444b24       0xb4 editors/lib.a(sed.o)
 .text.add_input_file
                0x0000000000444bd8       0x70 editors/lib.a(sed.o)
 .text.flush_append
                0x0000000000444c48       0x7c editors/lib.a(sed.o)
 .text.pipe_putc
                0x0000000000444cc4       0xa0 editors/lib.a(sed.o)
 .text.append   0x0000000000444d64       0x28 editors/lib.a(sed.o)
 .text.get_next_line
                0x0000000000444d8c      0x13c editors/lib.a(sed.o)
 .text.puts_maybe_newline
                0x0000000000444ec8      0x148 editors/lib.a(sed.o)
 .text.process_files
                0x0000000000445010      0xaa4 editors/lib.a(sed.o)
 .text.cleanup_outname
                0x0000000000445ab4       0x28 editors/lib.a(sed.o)
 .text.sed_main
                0x0000000000445adc      0x374 editors/lib.a(sed.o)
                0x0000000000445adc                sed_main
 .text.next_tabstop
                0x0000000000445e50       0x28 editors/lib.a(vi.o)
 .text.dot_left
                0x0000000000445e78       0x34 editors/lib.a(vi.o)
 .text.dot_right
                0x0000000000445eac       0x38 editors/lib.a(vi.o)
 .text.dot_skip_over_ws
                0x0000000000445ee4       0x5c editors/lib.a(vi.o)
 .text.find_pair
                0x0000000000445f40       0xe8 editors/lib.a(vi.o)
 .text.end_cmd_q
                0x0000000000446028       0x18 editors/lib.a(vi.o)
 .text.what_reg
                0x0000000000446040       0x40 editors/lib.a(vi.o)
 .text.show_help
                0x0000000000446080        0xc editors/lib.a(vi.o)
 .text.text_yank
                0x000000000044608c       0x70 editors/lib.a(vi.o)
 .text.rawmode  0x00000000004460fc       0xa0 editors/lib.a(vi.o)
 .text.cookmode
                0x000000000044619c       0x28 editors/lib.a(vi.o)
 .text.query_screen_dimensions
                0x00000000004461c4       0x5c editors/lib.a(vi.o)
 .text.write1   0x0000000000446220        0xc editors/lib.a(vi.o)
 .text.standout_start
                0x000000000044622c        0xc editors/lib.a(vi.o)
 .text.standout_end
                0x0000000000446238        0xc editors/lib.a(vi.o)
 .text.clear_to_eos
                0x0000000000446244        0xc editors/lib.a(vi.o)
 .text.screen_erase
                0x0000000000446250       0x18 editors/lib.a(vi.o)
 .text.new_screen
                0x0000000000446268       0x8c editors/lib.a(vi.o)
 .text.file_size
                0x00000000004462f4       0x38 editors/lib.a(vi.o)
 .text.text_hole_delete
                0x000000000044632c       0xe4 editors/lib.a(vi.o)
 .text.yank_delete
                0x0000000000446410       0xd4 editors/lib.a(vi.o)
 .text.text_hole_make
                0x00000000004464e4       0xec editors/lib.a(vi.o)
 .text.stupid_insert
                0x00000000004465d0       0x3c editors/lib.a(vi.o)
 .text.status_line_bold
                0x000000000044660c       0x88 editors/lib.a(vi.o)
 .text.file_insert
                0x0000000000446694      0x200 editors/lib.a(vi.o)
 .text.not_implemented
                0x0000000000446894      0x130 editors/lib.a(vi.o)
 .text.status_line
                0x00000000004469c4       0x4c editors/lib.a(vi.o)
 .text.string_insert
                0x0000000000446a10       0xb0 editors/lib.a(vi.o)
 .text.skip_thing
                0x0000000000446ac0      0x1cc editors/lib.a(vi.o)
 .text.setops   0x0000000000446c8c       0xac editors/lib.a(vi.o)
 .text.mycmp    0x0000000000446d38       0x28 editors/lib.a(vi.o)
 .text.file_write
                0x0000000000446d60       0xac editors/lib.a(vi.o)
 .text.place_cursor
                0x0000000000446e0c      0x170 editors/lib.a(vi.o)
 .text.go_bottom_and_clear_to_eol
                0x0000000000446f7c       0x38 editors/lib.a(vi.o)
 .text.readit   0x0000000000446fb4       0x5c editors/lib.a(vi.o)
 .text.get_one_char
                0x0000000000447010       0xb8 editors/lib.a(vi.o)
 .text.begin_line
                0x00000000004470c8       0x50 editors/lib.a(vi.o)
 .text.prev_line
                0x0000000000447118       0x44 editors/lib.a(vi.o)
 .text.dot_prev
                0x000000000044715c       0x30 editors/lib.a(vi.o)
 .text.move_to_col
                0x000000000044718c       0xc8 editors/lib.a(vi.o)
 .text.dot_begin
                0x0000000000447254       0x30 editors/lib.a(vi.o)
 .text.end_line
                0x0000000000447284       0x4c editors/lib.a(vi.o)
 .text.next_line
                0x00000000004472d0       0x44 editors/lib.a(vi.o)
 .text.find_line
                0x0000000000447314       0x44 editors/lib.a(vi.o)
 .text.char_search
                0x0000000000447358      0x118 editors/lib.a(vi.o)
 .text.dot_next
                0x0000000000447470       0x30 editors/lib.a(vi.o)
 .text.count_lines
                0x00000000004474a0       0xa4 editors/lib.a(vi.o)
 .text.get_one_address
                0x0000000000447544      0x1b0 editors/lib.a(vi.o)
 .text.end_screen
                0x00000000004476f4       0x54 editors/lib.a(vi.o)
 .text.dot_scroll
                0x0000000000447748       0xbc editors/lib.a(vi.o)
 .text.sync_cursor
                0x0000000000447804      0x23c editors/lib.a(vi.o)
 .text.dot_end  0x0000000000447a40       0x30 editors/lib.a(vi.o)
 .text.mysleep  0x0000000000447a70       0x38 editors/lib.a(vi.o)
 .text.refresh  0x0000000000447aa8      0x38c editors/lib.a(vi.o)
 .text.get_input_line
                0x0000000000447e34      0x134 editors/lib.a(vi.o)
 .text.show_status_line
                0x0000000000447f68      0x220 editors/lib.a(vi.o)
 .text.redraw   0x0000000000448188       0x54 editors/lib.a(vi.o)
 .text.Hit_Return
                0x00000000004481dc       0x58 editors/lib.a(vi.o)
 .text.cont_sig
                0x0000000000448234       0x68 editors/lib.a(vi.o)
 .text.winch_sig
                0x000000000044829c       0x68 editors/lib.a(vi.o)
 .text.suspend_sig
                0x0000000000448304       0x70 editors/lib.a(vi.o)
 .text.catch_sig
                0x0000000000448374       0x34 editors/lib.a(vi.o)
 .text.Indicate_Error
                0x00000000004483a8       0x60 editors/lib.a(vi.o)
 .text.char_insert
                0x0000000000448408      0x224 editors/lib.a(vi.o)
 .text.init_text_buffer
                0x000000000044862c       0xcc editors/lib.a(vi.o)
 .text.bound_dot
                0x00000000004486f8       0x70 editors/lib.a(vi.o)
 .text.colon    0x0000000000448768      0xe40 editors/lib.a(vi.o)
 .text.do_cmd   0x00000000004495a8     0x1748 editors/lib.a(vi.o)
 .text.edit_file
                0x000000000044acf0      0x394 editors/lib.a(vi.o)
 .text.find_range
                0x000000000044b084      0x304 editors/lib.a(vi.o)
 .text.vi_main  0x000000000044b388      0x1a8 editors/lib.a(vi.o)
                0x000000000044b388                vi_main
 .text.exec_actions
                0x000000000044b530       0xb8 findutils/lib.a(find.o)
 .text.func_type
                0x000000000044b5e8       0x18 findutils/lib.a(find.o)
 .text.func_perm
                0x000000000044b600       0x50 findutils/lib.a(find.o)
 .text.func_user
                0x000000000044b650       0x14 findutils/lib.a(find.o)
 .text.func_group
                0x000000000044b664       0x14 findutils/lib.a(find.o)
 .text.func_paren
                0x000000000044b678       0x18 findutils/lib.a(find.o)
 .text.func_size
                0x000000000044b690       0x8c findutils/lib.a(find.o)
 .text.func_prune
                0x000000000044b71c        0x8 findutils/lib.a(find.o)
 .text.plus_minus_num
                0x000000000044b724       0x28 findutils/lib.a(find.o)
 .text.alloc_action.7249
                0x000000000044b74c       0xd0 findutils/lib.a(find.o)
 .text.parse_params
                0x000000000044b81c      0x674 findutils/lib.a(find.o)
 .text.func_regex
                0x000000000044be90       0x5c findutils/lib.a(find.o)
 .text.func_path
                0x000000000044beec       0x34 findutils/lib.a(find.o)
 .text.func_name
                0x000000000044bf20       0x90 findutils/lib.a(find.o)
 .text.func_exec
                0x000000000044bfb0      0x1a8 findutils/lib.a(find.o)
 .text.func_print0
                0x000000000044c158       0x2c findutils/lib.a(find.o)
 .text.func_print
                0x000000000044c184       0x20 findutils/lib.a(find.o)
 .text.fileAction
                0x000000000044c1a4      0x144 findutils/lib.a(find.o)
 .text.find_main
                0x000000000044c2e8      0x1c8 findutils/lib.a(find.o)
                0x000000000044c2e8                find_main
 .text.add_grep_list_data
                0x000000000044c4b0       0x2c findutils/lib.a(grep.o)
 .text.print_line
                0x000000000044c4dc      0x11c findutils/lib.a(grep.o)
 .text.grep_file
                0x000000000044c5f8      0x558 findutils/lib.a(grep.o)
 .text.file_action_grep
                0x000000000044cb50       0xa8 findutils/lib.a(grep.o)
 .text.grep_main
                0x000000000044cbf8      0x4bc findutils/lib.a(grep.o)
                0x000000000044cbf8                grep_main
 .text.store_param
                0x000000000044d0b4       0x90 findutils/lib.a(xargs.o)
 .text.process0_stdin
                0x000000000044d144       0xdc findutils/lib.a(xargs.o)
 .text.process_stdin
                0x000000000044d220      0x238 findutils/lib.a(xargs.o)
 .text.xargs_main
                0x000000000044d458      0x484 findutils/lib.a(xargs.o)
                0x000000000044d458                xargs_main
 .text.halt_main
                0x000000000044d8dc       0xf4 init/lib.a(halt.o)
                0x000000000044d8dc                halt_main
 .text.bb_ask_confirmation
                0x000000000044d9d0       0xc8 libbb/lib.a(ask_confirmation.o)
                0x000000000044d9d0                bb_ask_confirmation
 .text.askpass_timeout
                0x000000000044da98        0x8 libbb/lib.a(bb_askpass.o)
 .text.bb_ask   0x000000000044daa0      0x1e0 libbb/lib.a(bb_askpass.o)
                0x000000000044daa0                bb_ask
 .text.bb_ask_stdin
                0x000000000044dc80       0x10 libbb/lib.a(bb_askpass.o)
                0x000000000044dc80                bb_ask_stdin
 .text.bb_do_delay
                0x000000000044dc90       0x50 libbb/lib.a(bb_do_delay.o)
                0x000000000044dc90                bb_do_delay
 .text.xgetpwnam
                0x000000000044dce0       0x38 libbb/lib.a(bb_pwd.o)
                0x000000000044dce0                xgetpwnam
 .text.xgetgrnam
                0x000000000044dd18       0x38 libbb/lib.a(bb_pwd.o)
                0x000000000044dd18                xgetgrnam
 .text.xgetpwuid
                0x000000000044dd50       0x38 libbb/lib.a(bb_pwd.o)
                0x000000000044dd50                xgetpwuid
 .text.xuid2uname
                0x000000000044dd88       0x20 libbb/lib.a(bb_pwd.o)
                0x000000000044dd88                xuid2uname
 .text.uid2uname
                0x000000000044dda8       0x2c libbb/lib.a(bb_pwd.o)
                0x000000000044dda8                uid2uname
 .text.gid2group
                0x000000000044ddd4       0x2c libbb/lib.a(bb_pwd.o)
                0x000000000044ddd4                gid2group
 .text.uid2uname_utoa
                0x000000000044de00       0x38 libbb/lib.a(bb_pwd.o)
                0x000000000044de00                uid2uname_utoa
 .text.gid2group_utoa
                0x000000000044de38       0x38 libbb/lib.a(bb_pwd.o)
                0x000000000044de38                gid2group_utoa
 .text.xuname2uid
                0x000000000044de70       0x20 libbb/lib.a(bb_pwd.o)
                0x000000000044de70                xuname2uid
 .text.xgroup2gid
                0x000000000044de90       0x20 libbb/lib.a(bb_pwd.o)
                0x000000000044de90                xgroup2gid
 .text.get_ug_id
                0x000000000044deb0       0x60 libbb/lib.a(bb_pwd.o)
                0x000000000044deb0                get_ug_id
 .text.change_identity
                0x000000000044df10       0x54 libbb/lib.a(change_identity.o)
                0x000000000044df10                change_identity
 .text.index_in_strings
                0x000000000044df64       0x74 libbb/lib.a(compare_string_array.o)
                0x000000000044df64                index_in_strings
 .text.index_in_substrings
                0x000000000044dfd8       0xc8 libbb/lib.a(compare_string_array.o)
                0x000000000044dfd8                index_in_substrings
 .text.concat_path_file
                0x000000000044e0a0       0x84 libbb/lib.a(concat_path_file.o)
                0x000000000044e0a0                concat_path_file
 .text.concat_subpath_file
                0x000000000044e124       0x44 libbb/lib.a(concat_subpath_file.o)
                0x000000000044e124                concat_subpath_file
 .text.ask_and_unlink
                0x000000000044e168       0xa0 libbb/lib.a(copy_file.o)
 .text.copy_file
                0x000000000044e208      0x694 libbb/lib.a(copy_file.o)
                0x000000000044e208                copy_file
 .text.crc32_filltable
                0x000000000044e89c       0xb4 libbb/lib.a(crc32.o)
                0x000000000044e89c                crc32_filltable
 .text.crc32_block_endian0
                0x000000000044e950       0x40 libbb/lib.a(crc32.o)
                0x000000000044e950                crc32_block_endian0
 .text.create_icmp6_socket
                0x000000000044e990       0x78 libbb/lib.a(create_icmp6_socket.o)
                0x000000000044e990                create_icmp6_socket
 .text.create_icmp_socket
                0x000000000044ea08       0x78 libbb/lib.a(create_icmp_socket.o)
                0x000000000044ea08                create_icmp_socket
 .text.bb_dump_size
                0x000000000044ea80      0x1b0 libbb/lib.a(dump.o)
 .text.rewrite  0x000000000044ec30      0x578 libbb/lib.a(dump.o)
 .text.next     0x000000000044f1a8      0x1fc libbb/lib.a(dump.o)
 .text.alloc_dumper
                0x000000000044f3a4       0x34 libbb/lib.a(dump.o)
                0x000000000044f3a4                alloc_dumper
 .text.bb_dump_dump
                0x000000000044f3d8      0x838 libbb/lib.a(dump.o)
                0x000000000044f3d8                bb_dump_dump
 .text.bb_dump_add
                0x000000000044fc10      0x288 libbb/lib.a(dump.o)
                0x000000000044fc10                bb_dump_add
 .text.execable_file
                0x000000000044fe98       0x60 libbb/lib.a(execable.o)
                0x000000000044fe98                execable_file
 .text.find_execable
                0x000000000044fef8       0xac libbb/lib.a(execable.o)
                0x000000000044fef8                find_execable
 .text.BB_EXECVP
                0x000000000044ffa4       0x4c libbb/lib.a(execable.o)
                0x000000000044ffa4                BB_EXECVP
 .text.BB_EXECVP_or_die
                0x000000000044fff0       0x50 libbb/lib.a(execable.o)
                0x000000000044fff0                BB_EXECVP_or_die
 .text.fclose_if_not_stdin
                0x0000000000450040       0x64 libbb/lib.a(fclose_nonstdin.o)
                0x0000000000450040                fclose_if_not_stdin
 .text.fflush_stdout_and_exit
                0x00000000004500a4       0x50 libbb/lib.a(fflush_stdout_and_exit.o)
                0x00000000004500a4                fflush_stdout_and_exit
 .text.xmalloc_fgets_internal
                0x00000000004500f4      0x168 libbb/lib.a(fgets_str.o)
 .text.xmalloc_fgets_str
                0x000000000045025c       0x2c libbb/lib.a(fgets_str.o)
                0x000000000045025c                xmalloc_fgets_str
 .text.find_mount_point
                0x0000000000450288      0x154 libbb/lib.a(find_mount_point.o)
                0x0000000000450288                find_mount_point
 .text.find_pid_by_name
                0x00000000004503dc      0x168 libbb/lib.a(find_pid_by_name.o)
                0x00000000004503dc                find_pid_by_name
 .text.pidlist_reverse
                0x0000000000450544       0x6c libbb/lib.a(find_pid_by_name.o)
                0x0000000000450544                pidlist_reverse
 .text.bb_get_chunk_from_file
                0x00000000004505b0      0x100 libbb/lib.a(get_line_from_file.o)
                0x00000000004505b0                bb_get_chunk_from_file
 .text.xmalloc_fgetline
                0x00000000004506b0       0x44 libbb/lib.a(get_line_from_file.o)
                0x00000000004506b0                xmalloc_fgetline
 .text.get_shell_name
                0x00000000004506f4       0x6c libbb/lib.a(get_shell_name.o)
                0x00000000004506f4                get_shell_name
 .text.get_volume_size_in_bytes
                0x0000000000450760      0x180 libbb/lib.a(get_volsize.o)
                0x0000000000450760                get_volume_size_in_bytes
 .text.getopt32
                0x00000000004508e0      0x6bc libbb/lib.a(getopt32.o)
                0x00000000004508e0                getopt32
 .text.xgetpty  0x0000000000450f9c       0x84 libbb/lib.a(getpty.o)
                0x0000000000450f9c                xgetpty
 .text.common64_end
                0x0000000000451020       0xc0 libbb/lib.a(hash_md5_sha.o)
 .text.md5_process_block64
                0x00000000004510e0      0x2ac libbb/lib.a(hash_md5_sha.o)
 .text.md5_begin
                0x000000000045138c       0x50 libbb/lib.a(hash_md5_sha.o)
                0x000000000045138c                md5_begin
 .text.md5_hash
                0x00000000004513dc       0xbc libbb/lib.a(hash_md5_sha.o)
                0x00000000004513dc                md5_hash
 .text.md5_end  0x0000000000451498       0xf4 libbb/lib.a(hash_md5_sha.o)
                0x0000000000451498                md5_end
 .text.make_human_readable_str
                0x000000000045158c      0x194 libbb/lib.a(human_readable.o)
                0x000000000045158c                make_human_readable_str
 .text.smart_ulltoa5
                0x0000000000451720      0x214 libbb/lib.a(human_readable.o)
                0x0000000000451720                smart_ulltoa5
 .text.INET_resolve
                0x0000000000451934       0xa0 libbb/lib.a(inet_common.o)
                0x0000000000451934                INET_resolve
 .text.INET_rresolve
                0x00000000004519d4      0x18c libbb/lib.a(inet_common.o)
                0x00000000004519d4                INET_rresolve
 .text.INET6_resolve
                0x0000000000451b60       0x9c libbb/lib.a(inet_common.o)
                0x0000000000451b60                INET6_resolve
 .text.INET6_rresolve
                0x0000000000451bfc       0xec libbb/lib.a(inet_common.o)
                0x0000000000451bfc                INET6_rresolve
 .text.bb_info_msg
                0x0000000000451ce8       0xb8 libbb/lib.a(info_msg.o)
                0x0000000000451ce8                bb_info_msg
 .text.is_in_ino_dev_hashtable
                0x0000000000451da0       0xc0 libbb/lib.a(inode_hash.o)
                0x0000000000451da0                is_in_ino_dev_hashtable
 .text.add_to_ino_dev_hashtable
                0x0000000000451e60       0xd4 libbb/lib.a(inode_hash.o)
                0x0000000000451e60                add_to_ino_dev_hashtable
 .text.reset_ino_dev_hashtable
                0x0000000000451f34       0x8c libbb/lib.a(inode_hash.o)
                0x0000000000451f34                reset_ino_dev_hashtable
 .text.is_directory
                0x0000000000451fc0       0x5c libbb/lib.a(isdirectory.o)
                0x0000000000451fc0                is_directory
 .text.remove_chunk
                0x000000000045201c       0x38 libbb/lib.a(lineedit.o)
 .text.build_match_prefix
                0x0000000000452054      0x42c libbb/lib.a(lineedit.o)
 .text.save_command_ps_at_cur_history
                0x0000000000452480       0x74 libbb/lib.a(lineedit.o)
 .text.free_tab_completion_data
                0x00000000004524f4       0x68 libbb/lib.a(lineedit.o)
 .text.deinit_S
                0x000000000045255c       0x54 libbb/lib.a(lineedit.o)
 .text.put_prompt
                0x00000000004525b0       0x60 libbb/lib.a(lineedit.o)
 .text.parse_and_put_prompt
                0x0000000000452610      0x3dc libbb/lib.a(lineedit.o)
 .text.is_special_char
                0x00000000004529ec       0x10 libbb/lib.a(lineedit.o)
 .text.quote_special_chars
                0x00000000004529fc       0x90 libbb/lib.a(lineedit.o)
 .text.complete_cmd_dir_file
                0x0000000000452a8c      0x350 libbb/lib.a(lineedit.o)
 .text.beep     0x0000000000452ddc        0x8 libbb/lib.a(lineedit.o)
 .text.get_previous_history
                0x0000000000452de4       0x70 libbb/lib.a(lineedit.o)
 .text.get_next_history
                0x0000000000452e54       0x74 libbb/lib.a(lineedit.o)
 .text.put_cur_glyph_and_inc_cursor
                0x0000000000452ec8       0x90 libbb/lib.a(lineedit.o)
 .text.input_forward
                0x0000000000452f58       0x2c libbb/lib.a(lineedit.o)
 .text.put_till_end_and_adv_cursor
                0x0000000000452f84       0x40 libbb/lib.a(lineedit.o)
 .text.goto_new_line
                0x0000000000452fc4       0x38 libbb/lib.a(lineedit.o)
 .text.input_backward
                0x0000000000452ffc      0x104 libbb/lib.a(lineedit.o)
 .text.input_delete
                0x0000000000453100       0x88 libbb/lib.a(lineedit.o)
 .text.input_backspace
                0x0000000000453188       0x38 libbb/lib.a(lineedit.o)
 .text.redraw   0x00000000004531c0       0x60 libbb/lib.a(lineedit.o)
 .text.input_tab
                0x0000000000453220      0x49c libbb/lib.a(lineedit.o)
 .text.win_changed
                0x00000000004536bc       0xa0 libbb/lib.a(lineedit.o)
 .text.new_line_input_t
                0x000000000045375c       0x34 libbb/lib.a(lineedit.o)
                0x000000000045375c                new_line_input_t
 .text.read_line_input
                0x0000000000453790      0x940 libbb/lib.a(lineedit.o)
                0x0000000000453790                read_line_input
 .text.llist_add_to
                0x00000000004540d0       0x44 libbb/lib.a(llist.o)
                0x00000000004540d0                llist_add_to
 .text.llist_add_to_end
                0x0000000000454114       0x50 libbb/lib.a(llist.o)
                0x0000000000454114                llist_add_to_end
 .text.llist_pop
                0x0000000000454164       0x40 libbb/lib.a(llist.o)
                0x0000000000454164                llist_pop
 .text.print_login_issue
                0x00000000004541a4      0x240 libbb/lib.a(login.o)
                0x00000000004541a4                print_login_issue
 .text.sanitize_env_if_suid
                0x00000000004543e4       0x6c libbb/lib.a(login.o)
                0x00000000004543e4                sanitize_env_if_suid
 .text.del_loop
                0x0000000000454450       0x58 libbb/lib.a(loop.o)
                0x0000000000454450                del_loop
 .text.set_loop
                0x00000000004544a8      0x280 libbb/lib.a(loop.o)
                0x00000000004544a8                set_loop
 .text.bb_make_directory
                0x0000000000454728      0x214 libbb/lib.a(make_directory.o)
                0x0000000000454728                bb_make_directory
 .text.bb_makedev
                0x000000000045493c       0x34 libbb/lib.a(makedev.o)
                0x000000000045493c                bb_makedev
 .text.match_fstype
                0x0000000000454970       0xc8 libbb/lib.a(match_fstype.o)
                0x0000000000454970                match_fstype
 .text.bb_mode_string
                0x0000000000454a38       0xb4 libbb/lib.a(mode_string.o)
                0x0000000000454a38                bb_mode_string
 .text.string_checker_helper
                0x0000000000454aec       0x54 libbb/lib.a(obscure.o)
 .text.string_checker
                0x0000000000454b40       0xb0 libbb/lib.a(obscure.o)
 .text.obscure  0x0000000000454bf0      0x20c libbb/lib.a(obscure.o)
                0x0000000000454bf0                obscure
 .text.config_open2
                0x0000000000454dfc       0x40 libbb/lib.a(parse_config.o)
                0x0000000000454dfc                config_open2
 .text.config_open
                0x0000000000454e3c        0xc libbb/lib.a(parse_config.o)
                0x0000000000454e3c                config_open
 .text.config_close
                0x0000000000454e48       0x50 libbb/lib.a(parse_config.o)
                0x0000000000454e48                config_close
 .text.config_read
                0x0000000000454e98      0x2e4 libbb/lib.a(parse_config.o)
                0x0000000000454e98                config_read
 .text.bb_parse_mode
                0x000000000045517c      0x2b8 libbb/lib.a(parse_mode.o)
                0x000000000045517c                bb_parse_mode
 .text.hex_to_bin
                0x0000000000455434       0x2c libbb/lib.a(percent_decode.o)
 .text.percent_decode_in_place
                0x0000000000455460      0x12c libbb/lib.a(percent_decode.o)
                0x0000000000455460                percent_decode_in_place
 .text.bb_perror_nomsg_and_die
                0x000000000045558c        0x8 libbb/lib.a(perror_nomsg_and_die.o)
                0x000000000045558c                bb_perror_nomsg_and_die
 .text.write_pidfile
                0x0000000000455594       0xac libbb/lib.a(pidfile.o)
                0x0000000000455594                write_pidfile
 .text.fputc_printable
                0x0000000000455640       0xe4 libbb/lib.a(printable.o)
                0x0000000000455640                fputc_printable
 .text.printable_string
                0x0000000000455724       0xf0 libbb/lib.a(printable_string.o)
                0x0000000000455724                printable_string
 .text.bb_process_escape_sequence
                0x0000000000455814       0xec libbb/lib.a(process_escape_sequence.o)
                0x0000000000455814                bb_process_escape_sequence
 .text.fast_strtoul_10
                0x0000000000455900       0x40 libbb/lib.a(procps.o)
 .text.skip_fields
                0x0000000000455940       0x28 libbb/lib.a(procps.o)
 .text.clear_cache
                0x0000000000455968       0x30 libbb/lib.a(procps.o)
 .text.read_to_buf
                0x0000000000455998       0x78 libbb/lib.a(procps.o)
 .text.get_cached
                0x0000000000455a10       0xd0 libbb/lib.a(procps.o)
 .text.clear_username_cache
                0x0000000000455ae0       0x28 libbb/lib.a(procps.o)
                0x0000000000455ae0                clear_username_cache
 .text.get_cached_username
                0x0000000000455b08       0x18 libbb/lib.a(procps.o)
                0x0000000000455b08                get_cached_username
 .text.get_cached_groupname
                0x0000000000455b20       0x18 libbb/lib.a(procps.o)
                0x0000000000455b20                get_cached_groupname
 .text.free_procps_scan
                0x0000000000455b38       0x3c libbb/lib.a(procps.o)
                0x0000000000455b38                free_procps_scan
 .text.procps_scan
                0x0000000000455b74      0x3b8 libbb/lib.a(procps.o)
                0x0000000000455b74                procps_scan
 .text.read_cmdline
                0x0000000000455f2c      0x16c libbb/lib.a(procps.o)
                0x0000000000455f2c                read_cmdline
 .text.bb_progress_init
                0x0000000000456098       0x38 libbb/lib.a(progress.o)
                0x0000000000456098                bb_progress_init
 .text.bb_progress_update
                0x00000000004560d0      0x3bc libbb/lib.a(progress.o)
                0x00000000004560d0                bb_progress_update
 .text.i64c     0x000000000045648c       0x40 libbb/lib.a(pw_encrypt.o)
 .text.crypt_make_salt
                0x00000000004564cc       0xbc libbb/lib.a(pw_encrypt.o)
                0x00000000004564cc                crypt_make_salt
 .text.crypt_make_pw_salt
                0x0000000000456588       0x9c libbb/lib.a(pw_encrypt.o)
                0x0000000000456588                crypt_make_pw_salt
 .text.pw_encrypt
                0x0000000000456624       0x20 libbb/lib.a(pw_encrypt.o)
                0x0000000000456624                pw_encrypt
 .text.read_key
                0x0000000000456644      0x334 libbb/lib.a(read_key.o)
                0x0000000000456644                read_key
 .text.nonblock_immune_read
                0x0000000000456978       0xd8 libbb/lib.a(read_printf.o)
                0x0000000000456978                nonblock_immune_read
 .text.xmalloc_read
                0x0000000000456a50      0x140 libbb/lib.a(read_printf.o)
                0x0000000000456a50                xmalloc_read
 .text.xmalloc_open_read_close
                0x0000000000456b90       0x60 libbb/lib.a(read_printf.o)
                0x0000000000456b90                xmalloc_open_read_close
 .text.xread    0x0000000000456bf0       0x40 libbb/lib.a(read_printf.o)
                0x0000000000456bf0                xread
 .text.xread_char
                0x0000000000456c30       0x24 libbb/lib.a(read_printf.o)
                0x0000000000456c30                xread_char
 .text.setup_unzip_on_fd
                0x0000000000456c54       0x54 libbb/lib.a(read_printf.o)
                0x0000000000456c54                setup_unzip_on_fd
 .text.open_zipped
                0x0000000000456ca8       0x6c libbb/lib.a(read_printf.o)
                0x0000000000456ca8                open_zipped
 .text.xmalloc_open_zipped_read_close
                0x0000000000456d14       0x7c libbb/lib.a(read_printf.o)
                0x0000000000456d14                xmalloc_open_zipped_read_close
 .text.true_action
                0x0000000000456d90        0x8 libbb/lib.a(recursive_action.o)
 .text.recursive_action
                0x0000000000456d98      0x234 libbb/lib.a(recursive_action.o)
                0x0000000000456d98                recursive_action
 .text.remove_file
                0x0000000000456fcc      0x278 libbb/lib.a(remove_file.o)
                0x0000000000456fcc                remove_file
 .text.rtc_adjtime_is_utc
                0x0000000000457244       0x94 libbb/lib.a(rtc.o)
                0x0000000000457244                rtc_adjtime_is_utc
 .text.rtc_xopen
                0x00000000004572d8       0x8c libbb/lib.a(rtc.o)
                0x00000000004572d8                rtc_xopen
 .text.rtc_read_tm
                0x0000000000457364       0x5c libbb/lib.a(rtc.o)
                0x0000000000457364                rtc_read_tm
 .text.rtc_tm2time
                0x00000000004573c0       0x94 libbb/lib.a(rtc.o)
                0x00000000004573c0                rtc_tm2time
 .text.safe_gethostname
                0x0000000000457454       0x38 libbb/lib.a(safe_gethostname.o)
                0x0000000000457454                safe_gethostname
 .text.safe_poll
                0x000000000045748c       0xac libbb/lib.a(safe_poll.o)
                0x000000000045748c                safe_poll
 .text.safe_strncpy
                0x0000000000457538       0x20 libbb/lib.a(safe_strncpy.o)
                0x0000000000457538                safe_strncpy
 .text.overlapping_strcpy
                0x0000000000457558       0x2c libbb/lib.a(safe_strncpy.o)
                0x0000000000457558                overlapping_strcpy
 .text.setup_environment
                0x0000000000457584      0x168 libbb/lib.a(setup_environment.o)
                0x0000000000457584                setup_environment
 .text.record_signo
                0x00000000004576ec        0xc libbb/lib.a(signals.o)
                0x00000000004576ec                record_signo
 .text.sigaction_set
                0x00000000004576f8        0x8 libbb/lib.a(signals.o)
                0x00000000004576f8                sigaction_set
 .text.sigprocmask_allsigs
                0x0000000000457700       0x34 libbb/lib.a(signals.o)
                0x0000000000457700                sigprocmask_allsigs
 .text.bb_signals
                0x0000000000457734       0x70 libbb/lib.a(signals.o)
                0x0000000000457734                bb_signals
 .text.sig_unblock
                0x00000000004577a4       0x40 libbb/lib.a(signals.o)
                0x00000000004577a4                sig_unblock
 .text.kill_myself_with_sig
                0x00000000004577e4       0x30 libbb/lib.a(signals.o)
                0x00000000004577e4                kill_myself_with_sig
 .text.signal_SA_RESTART_empty_mask
                0x0000000000457814       0x3c libbb/lib.a(signals.o)
                0x0000000000457814                signal_SA_RESTART_empty_mask
 .text.bb_simplify_abs_path_inplace
                0x0000000000457850       0xb8 libbb/lib.a(simplify_path.o)
                0x0000000000457850                bb_simplify_abs_path_inplace
 .text.bb_simplify_path
                0x0000000000457908       0x74 libbb/lib.a(simplify_path.o)
                0x0000000000457908                bb_simplify_path
 .text.single_argv
                0x000000000045797c       0x5c libbb/lib.a(single_argv.o)
                0x000000000045797c                single_argv
 .text.skip_whitespace
                0x00000000004579d8       0x30 libbb/lib.a(skip_whitespace.o)
                0x00000000004579d8                skip_whitespace
 .text.skip_non_whitespace
                0x0000000000457a08       0x38 libbb/lib.a(skip_whitespace.o)
                0x0000000000457a08                skip_non_whitespace
 .text.str_tolower
                0x0000000000457a40       0x3c libbb/lib.a(str_tolower.o)
                0x0000000000457a40                str_tolower
 .text.get_signum
                0x0000000000457a7c       0xa4 libbb/lib.a(u_signal_names.o)
                0x0000000000457a7c                get_signum
 .text.get_signame
                0x0000000000457b20       0x38 libbb/lib.a(u_signal_names.o)
                0x0000000000457b20                get_signame
 .text.print_signames
                0x0000000000457b58       0x70 libbb/lib.a(u_signal_names.o)
                0x0000000000457b58                print_signames
 .text.socket_want_pktinfo
                0x0000000000457bc8       0x64 libbb/lib.a(udp_io.o)
                0x0000000000457bc8                socket_want_pktinfo
 .text.send_to_from
                0x0000000000457c2c      0x158 libbb/lib.a(udp_io.o)
                0x0000000000457c2c                send_to_from
 .text.recv_from_to
                0x0000000000457d84      0x138 libbb/lib.a(udp_io.o)
                0x0000000000457d84                recv_from_to
 .text.update_passwd
                0x0000000000457ebc      0x42c libbb/lib.a(update_passwd.o)
                0x0000000000457ebc                update_passwd
 .text.bb_uuencode
                0x00000000004582e8       0xb8 libbb/lib.a(uuencode.o)
                0x00000000004582e8                bb_uuencode
 .text.spawn    0x00000000004583a0       0x90 libbb/lib.a(vfork_daemon_rexec.o)
                0x00000000004583a0                spawn
 .text.run_nofork_applet
                0x0000000000458430      0x1c0 libbb/lib.a(vfork_daemon_rexec.o)
                0x0000000000458430                run_nofork_applet
 .text.spawn_and_wait
                0x00000000004585f0       0xac libbb/lib.a(vfork_daemon_rexec.o)
                0x00000000004585f0                spawn_and_wait
 .text.bb_daemonize_or_rexec
                0x000000000045869c      0x124 libbb/lib.a(vfork_daemon_rexec.o)
                0x000000000045869c                bb_daemonize_or_rexec
 .text.bb_sanitize_stdio
                0x00000000004587c0        0x8 libbb/lib.a(vfork_daemon_rexec.o)
                0x00000000004587c0                bb_sanitize_stdio
 .text.xfdopen_helper
                0x00000000004587c8       0x4c libbb/lib.a(wfopen.o)
 .text.fopen_or_warn
                0x0000000000458814       0x40 libbb/lib.a(wfopen.o)
                0x0000000000458814                fopen_or_warn
 .text.fopen_for_read
                0x0000000000458854        0xc libbb/lib.a(wfopen.o)
                0x0000000000458854                fopen_for_read
 .text.xfopen_for_read
                0x0000000000458860        0xc libbb/lib.a(wfopen.o)
                0x0000000000458860                xfopen_for_read
 .text.fopen_for_write
                0x000000000045886c        0xc libbb/lib.a(wfopen.o)
                0x000000000045886c                fopen_for_write
 .text.xfopen_for_write
                0x0000000000458878        0xc libbb/lib.a(wfopen.o)
                0x0000000000458878                xfopen_for_write
 .text.xfdopen_for_write
                0x0000000000458884        0xc libbb/lib.a(wfopen.o)
                0x0000000000458884                xfdopen_for_write
 .text.fopen_or_warn_stdin
                0x0000000000458890       0x44 libbb/lib.a(wfopen_input.o)
                0x0000000000458890                fopen_or_warn_stdin
 .text.xfopen_stdin
                0x00000000004588d4       0x28 libbb/lib.a(wfopen_input.o)
                0x00000000004588d4                xfopen_stdin
 .text.open_or_warn_stdin
                0x00000000004588fc       0x3c libbb/lib.a(wfopen_input.o)
                0x00000000004588fc                open_or_warn_stdin
 .text.xstrtoull_range_sfx
                0x0000000000458938      0x1dc libbb/lib.a(xatonum.o)
                0x0000000000458938                xstrtoull_range_sfx
 .text.xatoull_range
                0x0000000000458b14       0x30 libbb/lib.a(xatonum.o)
                0x0000000000458b14                xatoull_range
 .text.xatoull_sfx
                0x0000000000458b44       0x38 libbb/lib.a(xatonum.o)
                0x0000000000458b44                xatoull_sfx
 .text.xstrtoul_range_sfx
                0x0000000000458b7c      0x170 libbb/lib.a(xatonum.o)
                0x0000000000458b7c                xstrtoul_range_sfx
 .text.xatoul_range_sfx
                0x0000000000458cec       0x30 libbb/lib.a(xatonum.o)
                0x0000000000458cec                xatoul_range_sfx
 .text.xatoul_range
                0x0000000000458d1c       0x2c libbb/lib.a(xatonum.o)
                0x0000000000458d1c                xatoul_range
 .text.xatoul_sfx
                0x0000000000458d48       0x28 libbb/lib.a(xatonum.o)
                0x0000000000458d48                xatoul_sfx
 .text.xatoul   0x0000000000458d70        0x8 libbb/lib.a(xatonum.o)
                0x0000000000458d70                xatoul
 .text.xstrtol_range_sfx
                0x0000000000458d78       0xc0 libbb/lib.a(xatonum.o)
                0x0000000000458d78                xstrtol_range_sfx
 .text.xatol_range
                0x0000000000458e38       0x2c libbb/lib.a(xatonum.o)
                0x0000000000458e38                xatol_range
 .text.xatoi_positive
                0x0000000000458e64       0x10 libbb/lib.a(xatonum.o)
                0x0000000000458e64                xatoi_positive
 .text.xatou16  0x0000000000458e74       0x24 libbb/lib.a(xatonum.o)
                0x0000000000458e74                xatou16
 .text.sockaddr2str
                0x0000000000458e98       0xdc libbb/lib.a(xconnect.o)
 .text.get_lsa  0x0000000000458f74       0xa4 libbb/lib.a(xconnect.o)
 .text.setsockopt_reuseaddr
                0x0000000000459018       0x30 libbb/lib.a(xconnect.o)
                0x0000000000459018                setsockopt_reuseaddr
 .text.setsockopt_broadcast
                0x0000000000459048       0x30 libbb/lib.a(xconnect.o)
                0x0000000000459048                setsockopt_broadcast
 .text.setsockopt_bindtodevice
                0x0000000000459078       0x6c libbb/lib.a(xconnect.o)
                0x0000000000459078                setsockopt_bindtodevice
 .text.get_sock_lsa
                0x00000000004590e4        0xc libbb/lib.a(xconnect.o)
                0x00000000004590e4                get_sock_lsa
 .text.xconnect
                0x00000000004590f0       0x64 libbb/lib.a(xconnect.o)
                0x00000000004590f0                xconnect
 .text.bb_lookup_port
                0x0000000000459154       0xa4 libbb/lib.a(xconnect.o)
                0x0000000000459154                bb_lookup_port
 .text.set_nport
                0x00000000004591f8       0x28 libbb/lib.a(xconnect.o)
                0x00000000004591f8                set_nport
 .text.str2sockaddr
                0x0000000000459220      0x2f8 libbb/lib.a(xconnect.o)
 .text.host_and_af2sockaddr
                0x0000000000459518        0xc libbb/lib.a(xconnect.o)
                0x0000000000459518                host_and_af2sockaddr
 .text.xhost_and_af2sockaddr
                0x0000000000459524        0xc libbb/lib.a(xconnect.o)
                0x0000000000459524                xhost_and_af2sockaddr
 .text.host2sockaddr
                0x0000000000459530        0xc libbb/lib.a(xconnect.o)
                0x0000000000459530                host2sockaddr
 .text.xhost2sockaddr
                0x000000000045953c        0xc libbb/lib.a(xconnect.o)
                0x000000000045953c                xhost2sockaddr
 .text.xdotted2sockaddr
                0x0000000000459548        0xc libbb/lib.a(xconnect.o)
                0x0000000000459548                xdotted2sockaddr
 .text.xsocket_type
                0x0000000000459554       0xa8 libbb/lib.a(xconnect.o)
                0x0000000000459554                xsocket_type
 .text.create_and_bind_or_die
                0x00000000004595fc       0xac libbb/lib.a(xconnect.o)
 .text.create_and_bind_stream_or_die
                0x00000000004596a8        0x8 libbb/lib.a(xconnect.o)
                0x00000000004596a8                create_and_bind_stream_or_die
 .text.create_and_bind_dgram_or_die
                0x00000000004596b0        0x8 libbb/lib.a(xconnect.o)
                0x00000000004596b0                create_and_bind_dgram_or_die
 .text.create_and_connect_stream_or_die
                0x00000000004596b8       0x64 libbb/lib.a(xconnect.o)
                0x00000000004596b8                create_and_connect_stream_or_die
 .text.xconnect_stream
                0x000000000045971c       0x50 libbb/lib.a(xconnect.o)
                0x000000000045971c                xconnect_stream
 .text.xmalloc_sockaddr2host_noport
                0x000000000045976c        0x8 libbb/lib.a(xconnect.o)
                0x000000000045976c                xmalloc_sockaddr2host_noport
 .text.xmalloc_sockaddr2hostonly_noport
                0x0000000000459774        0x8 libbb/lib.a(xconnect.o)
                0x0000000000459774                xmalloc_sockaddr2hostonly_noport
 .text.xmalloc_sockaddr2dotted
                0x000000000045977c        0x8 libbb/lib.a(xconnect.o)
                0x000000000045977c                xmalloc_sockaddr2dotted
 .text.xmalloc_sockaddr2dotted_noport
                0x0000000000459784        0x8 libbb/lib.a(xconnect.o)
                0x0000000000459784                xmalloc_sockaddr2dotted_noport
 .text.xrealloc_getcwd_or_warn
                0x000000000045978c       0xc0 libbb/lib.a(xgetcwd.o)
                0x000000000045978c                xrealloc_getcwd_or_warn
 .text.xmalloc_readlink
                0x000000000045984c       0x98 libbb/lib.a(xreadlink.o)
                0x000000000045984c                xmalloc_readlink
 .text.xmalloc_follow_symlinks
                0x00000000004598e4      0x118 libbb/lib.a(xreadlink.o)
                0x00000000004598e4                xmalloc_follow_symlinks
 .text.xmalloc_readlink_or_warn
                0x00000000004599fc       0x7c libbb/lib.a(xreadlink.o)
                0x00000000004599fc                xmalloc_readlink_or_warn
 .text.xmalloc_realpath
                0x0000000000459a78       0x24 libbb/lib.a(xreadlink.o)
                0x0000000000459a78                xmalloc_realpath
 .text.xrealloc_vector_helper
                0x0000000000459a9c       0x84 libbb/lib.a(xrealloc_vector.o)
                0x0000000000459a9c                xrealloc_vector_helper
 .text.regcomp_or_errmsg
                0x0000000000459b20       0x84 libbb/lib.a(xregcomp.o)
                0x0000000000459b20                regcomp_or_errmsg
 .text.xregcomp
                0x0000000000459ba4       0x3c libbb/lib.a(xregcomp.o)
                0x0000000000459ba4                xregcomp
 .text.bb_bswap_64
                0x0000000000459be0       0x50 libbb/lib.a(bb_bswap_64.o)
                0x0000000000459be0                bb_bswap_64
 .text.bb_pstrcmp
                0x0000000000459c30        0xc libbb/lib.a(bb_qsort.o)
                0x0000000000459c30                bb_pstrcmp
 .text.qsort_string_vector
                0x0000000000459c3c       0x10 libbb/lib.a(bb_qsort.o)
                0x0000000000459c3c                qsort_string_vector
 .text.bb_perror_nomsg
                0x0000000000459c4c        0x8 libbb/lib.a(perror_nomsg.o)
                0x0000000000459c4c                bb_perror_nomsg
 .text.get_uidgid
                0x0000000000459c54      0x15c libpwdgrp/lib.a(uidgid_get.o)
                0x0000000000459c54                get_uidgid
 .text.xget_uidgid
                0x0000000000459db0       0x3c libpwdgrp/lib.a(uidgid_get.o)
                0x0000000000459db0                xget_uidgid
 .text.parse_chown_usergroup_or_die
                0x0000000000459dec       0xbc libpwdgrp/lib.a(uidgid_get.o)
                0x0000000000459dec                parse_chown_usergroup_or_die
 .text.stub.1   0x0000000000459ea8        0x8 linker stubs
                0x0000000000459ea8                .pic.atexit
 .text.atexit   0x0000000000459eb0       0x28 /home/shizhai/new_zhongwang/trunk/staging_dir/toolchain-mips_r2_gcc-4.6-linaro_uClibc-0.9.33.2/lib/gcc/mips-openwrt-linux-uclibc/4.6.4/../../../../mips-openwrt-linux-uclibc/lib/uclibc_nonshared.a(atexit.os)
                0x0000000000459eb0                atexit
 *(SORT(.gnu.warning))
 *(SORT(.mips16.fn.*))
 *(SORT(.mips16.call.*))

.MIPS.stubs     0x0000000000459ed8       0x30
 .MIPS.stubs    0x0000000000459ed8       0x30 /home/shizhai/new_zhongwang/trunk/staging_dir/toolchain-mips_r2_gcc-4.6-linaro_uClibc-0.9.33.2/lib/gcc/mips-openwrt-linux-uclibc/4.6.4/../../../../mips-openwrt-linux-uclibc/lib/crt1.o
                0x0000000000459ed8                __cxa_atexit
                0x0000000000459ee8                __uClibc_main

.fini           0x0000000000459f08       0x38
 *(SORT(.fini))
 .fini          0x0000000000459f08       0x1c /home/shizhai/new_zhongwang/trunk/staging_dir/toolchain-mips_r2_gcc-4.6-linaro_uClibc-0.9.33.2/lib/gcc/mips-openwrt-linux-uclibc/4.6.4/../../../../mips-openwrt-linux-uclibc/lib/crti.o
                0x0000000000459f08                _fini
 .fini          0x0000000000459f24        0xc /home/shizhai/new_zhongwang/trunk/staging_dir/toolchain-mips_r2_gcc-4.6-linaro_uClibc-0.9.33.2/lib/gcc/mips-openwrt-linux-uclibc/4.6.4/../../../../mips-openwrt-linux-uclibc/lib/crtn.o
 .fini          0x0000000000459f30       0x10 /home/shizhai/new_zhongwang/trunk/staging_dir/toolchain-mips_r2_gcc-4.6-linaro_uClibc-0.9.33.2/lib/gcc/mips-openwrt-linux-uclibc/4.6.4/crtbegin.o
                0x0000000000459f40                PROVIDE (__etext, .)
                0x0000000000459f40                PROVIDE (_etext, .)
                0x0000000000459f40                PROVIDE (etext, .)

.rodata         0x0000000000459f40     0xc8a0
 *(SORT(.rodata) SORT(.rodata.*) SORT(.gnu.linkonce.r.*))
 .rodata        0x0000000000459f40       0x10 networking/lib.a(ifconfig.o)
 .rodata        0x0000000000459f50       0x80 shell/lib.a(ash.o)
 .rodata        0x0000000000459fd0       0x40 coreutils/lib.a(ls.o)
 .rodata        0x000000000045a010       0x10 coreutils/lib.a(tee.o)
 .rodata.cst8   0x000000000045a020        0x8 networking/lib.a(brctl.o)
 .rodata.cst8   0x000000000045a028       0xa8 networking/lib.a(ntpd.o)
                                         0xb0 (size before relaxing)
 .rodata.cst8   0x0000000000000000        0x8 coreutils/lib.a(seq.o)
 .rodata.cst8   0x000000000045a0d0       0x10 editors/lib.a(awk.o)
                                         0x18 (size before relaxing)
 .rodata.str1.4
                0x000000000045a0e0      0x298 libbb/lib.a(appletlib.o)
                                        0x2a8 (size before relaxing)
 .rodata.applet_main
                0x000000000045a378      0x1e8 libbb/lib.a(appletlib.o)
                0x000000000045a378                applet_main
 .rodata.const_int_0
                0x000000000045a560        0x4 libbb/lib.a(messages.o)
                0x000000000045a560                const_int_0
 .rodata.const_int_1
                0x000000000045a564        0x4 libbb/lib.a(messages.o)
                0x000000000045a564                const_int_1
 .rodata.str1.4
                0x0000000000000000      0x298 libbb/lib.a(verror_msg.o)
                                          0xc (size before relaxing)
 .rodata.str1.4
                0x000000000045a568       0x10 libbb/lib.a(xfuncs.o)
 .rodata.str1.4
                0x000000000045a578      0x19e libbb/lib.a(xfuncs_printf.o)
                                        0x1a0 (size before relaxing)
 *fill*         0x000000000045a716        0x2 00
 .rodata.str1.4
                0x000000000045a718       0x23 libbb/lib.a(copyfd.o)
                                         0x24 (size before relaxing)
 .rodata.str1.4
                0x0000000000000000        0x4 libbb/lib.a(perror_msg.o)
 *fill*         0x000000000045a73b        0x1 00
 .rodata.str1.4
                0x000000000045a73c       0x66 libbb/lib.a(time.o)
                                         0x70 (size before relaxing)
 *fill*         0x000000000045a7a2        0x2 00
 .rodata.str1.4
                0x000000000045a7a4      0x1a4 loginutils/lib.a(passwd.o)
                                        0x1b4 (size before relaxing)
 .rodata.str1.4
                0x000000000045a948      0x1e8 miscutils/lib.a(crond.o)
                                        0x1f8 (size before relaxing)
 .rodata.str1.4
                0x000000000045ab30       0x8e miscutils/lib.a(crontab.o)
                                         0xb8 (size before relaxing)
 *fill*         0x000000000045abbe        0x2 00
 .rodata.str1.4
                0x000000000045abc0      0x124 miscutils/lib.a(less.o)
                                        0x138 (size before relaxing)
 .rodata.str1.4
                0x000000000045ace4       0x9b miscutils/lib.a(lock.o)
                                         0xa8 (size before relaxing)
 *fill*         0x000000000045ad7f        0x1 00
 .rodata.str1.4
                0x000000000045ad80       0x23 miscutils/lib.a(strings.o)
                                         0x24 (size before relaxing)
 *fill*         0x000000000045ada3        0x1 00
 .rodata.str1.4
                0x000000000045ada4       0x98 miscutils/lib.a(time.o)
                                         0xb0 (size before relaxing)
 .rodata.time_main
                0x000000000045ae3c       0xd8 miscutils/lib.a(time.o)
 .rodata.str1.4
                0x000000000045af14       0x36 modutils/lib.a(insmod.o)
                                         0x38 (size before relaxing)
 *fill*         0x000000000045af4a        0x2 00
 .rodata.str1.4
                0x000000000045af4c       0x82 modutils/lib.a(lsmod.o)
                                         0x88 (size before relaxing)
 *fill*         0x000000000045afce        0x2 00
 .rodata.str1.4
                0x000000000045afd0       0xb8 modutils/lib.a(modutils.o)
                                         0xbc (size before relaxing)
 .rodata.str1.4
                0x000000000045b088       0x26 modutils/lib.a(rmmod.o)
                                         0x28 (size before relaxing)
 *fill*         0x000000000045b0ae        0x2 00
 .rodata.str1.4
                0x000000000045b0b0      0x1b2 networking/lib.a(arping.o)
                                        0x1d8 (size before relaxing)
 *fill*         0x000000000045b262        0x2 00
 .rodata.str1.4
                0x000000000045b264       0xed networking/lib.a(brctl.o)
                                         0xf0 (size before relaxing)
 *fill*         0x000000000045b351        0x3 00
 .rodata.str1.4
                0x000000000045b354      0x144 networking/lib.a(ifconfig.o)
                                        0x154 (size before relaxing)
 .rodata.OptArray
                0x000000000045b498       0x98 networking/lib.a(ifconfig.o)
 .rodata.Arg1Opt
                0x000000000045b530       0x58 networking/lib.a(ifconfig.o)
 .rodata.str1.4
                0x000000000045b588      0x4b5 networking/lib.a(interface.o)
                                        0x4cc (size before relaxing)
 *fill*         0x000000000045ba3d        0x3 00
 .rodata.aftypes
                0x000000000045ba40       0x10 networking/lib.a(interface.o)
 .rodata.hwtypes
                0x000000000045ba50       0x18 networking/lib.a(interface.o)
 .rodata.ss_fmt
                0x000000000045ba68        0xc networking/lib.a(interface.o)
 .rodata.if_port_text
                0x000000000045ba74       0x20 networking/lib.a(interface.o)
 .rodata.inet_aftype
                0x000000000045ba94       0x2c networking/lib.a(interface.o)
 .rodata.inet6_aftype
                0x000000000045bac0       0x2c networking/lib.a(interface.o)
 .rodata.unspec_aftype
                0x000000000045baec       0x2c networking/lib.a(interface.o)
 .rodata.loop_hwtype
                0x000000000045bb18       0x20 networking/lib.a(interface.o)
 .rodata.ether_hwtype
                0x000000000045bb38       0x20 networking/lib.a(interface.o)
 .rodata.ppp_hwtype
                0x000000000045bb58       0x20 networking/lib.a(interface.o)
 .rodata.unspec_hwtype
                0x000000000045bb78       0x20 networking/lib.a(interface.o)
 .rodata.sit_hwtype
                0x000000000045bb98       0x20 networking/lib.a(interface.o)
 .rodata.str1.4
                0x000000000045bbb8        0xb networking/lib.a(nc.o)
                                          0xc (size before relaxing)
 *fill*         0x000000000045bbc3        0x1 00
 .rodata.str1.4
                0x000000000045bbc4       0x45 networking/lib.a(netmsg.o)
                                         0x48 (size before relaxing)
 *fill*         0x000000000045bc09        0x3 00
 .rodata.str1.4
                0x000000000045bc0c      0x424 networking/lib.a(netstat.o)
                                        0x438 (size before relaxing)
 .rodata.unix_do_one
                0x000000000045c030       0x14 networking/lib.a(netstat.o)
 .rodata.CSWTCH.38
                0x000000000045c044       0x14 networking/lib.a(netstat.o)
 .rodata.CSWTCH.43
                0x000000000045c058       0x1c networking/lib.a(netstat.o)
 .rodata.tcp_state
                0x000000000045c074       0x30 networking/lib.a(netstat.o)
 .rodata.str1.4
                0x000000000045c0a4       0x46 networking/lib.a(nslookup.o)
                                         0x48 (size before relaxing)
 *fill*         0x000000000045c0ea        0x2 00
 .rodata.str1.4
                0x000000000045c0ec      0x2cd networking/lib.a(ntpd.o)
                                        0x2d0 (size before relaxing)
 *fill*         0x000000000045c3b9        0x3 00
 .rodata.const_IPTOS_LOWDELAY
                0x000000000045c3bc        0x4 networking/lib.a(ntpd.o)
 .rodata.str1.4
                0x000000000045c3c0      0x2ff networking/lib.a(ping.o)
                                        0x318 (size before relaxing)
 *fill*         0x000000000045c6bf        0x1 00
 .rodata.CSWTCH.35
                0x000000000045c6c0       0x4c networking/lib.a(ping.o)
 .rodata.str1.4
                0x000000000045c70c      0x279 networking/lib.a(route.o)
                                        0x2a4 (size before relaxing)
 *fill*         0x000000000045c985        0x3 00
 .rodata.flagvals
                0x000000000045c988       0x20 networking/lib.a(route.o)
 .rodata.flags_ipvx
                0x000000000045c9a8       0x10 networking/lib.a(route.o)
 .rodata.str1.4
                0x000000000045c9b8       0xf4 networking/lib.a(telnet.o)
                                        0x104 (size before relaxing)
 .rodata.telnet_main
                0x000000000045caac       0x18 networking/lib.a(telnet.o)
 .rodata.str1.4
                0x000000000045cac4       0x28 networking/lib.a(telnetd.o)
                                         0x30 (size before relaxing)
 .rodata.str1.4
                0x000000000045caec      0x243 networking/lib.a(traceroute.o)
                                        0x2d0 (size before relaxing)
 *fill*         0x000000000045cd2f        0x1 00
 .rodata.traceroute_main
                0x000000000045cd30       0x40 networking/lib.a(traceroute.o)
 .rodata.ttab.7291
                0x000000000045cd70       0x4c networking/lib.a(traceroute.o)
 .rodata.str1.4
                0x000000000045cdbc       0x13 networking/lib.a(vconfig.o)
                                         0x14 (size before relaxing)
 *fill*         0x000000000045cdcf        0x1 00
 .rodata.str1.4
                0x000000000045cdd0      0x2fe networking/lib.a(wget.o)
                                        0x324 (size before relaxing)
 *fill*         0x000000000045d0ce        0x2 00
 .rodata.str1.4
                0x000000000045d0d0      0x330 networking/udhcp/lib.a(dhcpc.o)
                                        0x354 (size before relaxing)
 .rodata.xmalloc_optname_optval.isra.0
                0x000000000045d400       0x34 networking/udhcp/lib.a(dhcpc.o)
 .rodata.udhcpc_main
                0x000000000045d434       0x18 networking/udhcp/lib.a(dhcpc.o)
 .rodata.len_of_option_as_string
                0x000000000045d44c       0x10 networking/udhcp/lib.a(dhcpc.o)
 .rodata.filter_prog.7590
                0x000000000045d45c        0x8 networking/udhcp/lib.a(dhcpc.o)
 .rodata.filter_instr.7589
                0x000000000045d464       0x48 networking/udhcp/lib.a(dhcpc.o)
 .rodata.str1.4
                0x000000000045d4ac       0x34 networking/udhcp/lib.a(packet.o)
                                         0x64 (size before relaxing)
 .rodata.str1.4
                0x000000000045d4e0       0x12 networking/udhcp/lib.a(signalpipe.o)
                                         0x14 (size before relaxing)
 *fill*         0x000000000045d4f2        0x2 00
 .rodata.str1.4
                0x000000000045d4f4       0x51 networking/udhcp/lib.a(socket.o)
                                         0x54 (size before relaxing)
 *fill*         0x000000000045d545        0x3 00
 .rodata.str1.4
                0x000000000045d548       0xba networking/udhcp/lib.a(common.o)
                                         0xbc (size before relaxing)
 *fill*         0x000000000045d602        0x2 00
 .rodata.udhcp_str2optset
                0x000000000045d604       0x30 networking/udhcp/lib.a(common.o)
 .rodata.dhcp_optflags
                0x000000000045d634       0x44 networking/udhcp/lib.a(common.o)
                0x000000000045d634                dhcp_optflags
 .rodata.str1.4
                0x000000000045d678       0x86 procps/lib.a(free.o)
                                         0x88 (size before relaxing)
 *fill*         0x000000000045d6fe        0x2 00
 .rodata.str1.4
                0x000000000045d700       0x90 procps/lib.a(kill.o)
                                         0x94 (size before relaxing)
 .rodata.str1.4
                0x000000000045d790       0x1b procps/lib.a(pgrep.o)
                                         0x20 (size before relaxing)
 .rodata.str1.4
                0x0000000000000000       0x1b procps/lib.a(pidof.o)
                                          0x8 (size before relaxing)
 *fill*         0x000000000045d7ab        0x1 00
 .rodata.str1.4
                0x000000000045d7ac       0x4b procps/lib.a(ps.o)
                                         0x50 (size before relaxing)
 *fill*         0x000000000045d7f7        0x1 00
 .rodata.str1.4
                0x000000000045d7f8       0xe1 procps/lib.a(sysctl.o)
                                         0xf0 (size before relaxing)
 *fill*         0x000000000045d8d9        0x3 00
 .rodata.str1.4
                0x000000000045d8dc      0x1dd procps/lib.a(top.o)
                                        0x208 (size before relaxing)
 *fill*         0x000000000045dab9        0x3 00
 .rodata.fmt.6966
                0x000000000045dabc       0x2c procps/lib.a(top.o)
 .rodata.str1.4
                0x000000000045dae8       0x60 procps/lib.a(uptime.o)
                                         0x68 (size before relaxing)
 .rodata.calcsize
                0x000000000045db48       0x6c shell/lib.a(ash.o)
 .rodata.copynode
                0x000000000045dbb4       0x6c shell/lib.a(ash.o)
 .rodata.str1.4
                0x000000000045dc20      0xa31 shell/lib.a(ash.o)
                                        0xae0 (size before relaxing)
 *fill*         0x000000000045e651        0x3 00
 .rodata.cmdtxt
                0x000000000045e654       0x6c shell/lib.a(ash.o)
 .rodata.readcmd
                0x000000000045e6c0       0x20 shell/lib.a(ash.o)
 .rodata.redirect
                0x000000000045e6e0       0x18 shell/lib.a(ash.o)
 .rodata.readtoken1
                0x000000000045e6f8       0x3c shell/lib.a(ash.o)
 .rodata.evaltree
                0x000000000045e734       0x3c shell/lib.a(ash.o)
 .rodata.argstr
                0x000000000045e770       0x20 shell/lib.a(ash.o)
 .rodata.parse_command
                0x000000000045e790       0x88 shell/lib.a(ash.o)
 .rodata.syntax_index_table
                0x000000000045e818      0x104 shell/lib.a(ash.o)
 .rodata.S_I_T  0x000000000045e91c       0x20 shell/lib.a(ash.o)
 .rodata.optletters_optnames
                0x000000000045e93c       0x3c shell/lib.a(ash.o)
 .rodata.vstype.8062
                0x000000000045e978       0x30 shell/lib.a(ash.o)
 .rodata.CSWTCH.734
                0x000000000045e9a8        0x4 shell/lib.a(ash.o)
 .rodata.builtintab
                0x000000000045e9ac      0x158 shell/lib.a(ash.o)
 .rodata.tokname_array
                0x000000000045eb04       0x74 shell/lib.a(ash.o)
 .rodata.CSWTCH.720
                0x000000000045eb78        0xc shell/lib.a(ash.o)
 .rodata.null_bltin.9456
                0x000000000045eb84        0x8 shell/lib.a(ash.o)
 .rodata.nodesize
                0x000000000045eb8c       0x1c shell/lib.a(ash.o)
 .rodata.varinit_data
                0x000000000045eba8       0x48 shell/lib.a(ash.o)
 .rodata.str1.4
                0x000000000045ebf0       0x7b shell/lib.a(math.o)
                                         0x84 (size before relaxing)
 *fill*         0x000000000045ec6b        0x1 00
 .rodata.str1.4
                0x000000000045ec6c      0x183 shell/lib.a(shell_common.o)
                                        0x1a4 (size before relaxing)
 *fill*         0x000000000045edef        0x1 00
 .rodata.ulimit_opt_string
                0x000000000045edf0       0x2c shell/lib.a(shell_common.o)
 .rodata.limits_tbl
                0x000000000045ee1c       0x68 shell/lib.a(shell_common.o)
 .rodata.str1.4
                0x000000000045ee84      0x130 sysklogd/lib.a(syslogd_and_logger.o)
                                        0x148 (size before relaxing)
 .rodata.facilitynames
                0x000000000045efb4       0xb8 sysklogd/lib.a(syslogd_and_logger.o)
                0x000000000045efb4                facilitynames
 .rodata.prioritynames
                0x000000000045f06c       0x68 sysklogd/lib.a(syslogd_and_logger.o)
                0x000000000045f06c                prioritynames
 .rodata.str1.4
                0x000000000045f0d4       0x18 util-linux/lib.a(dmesg.o)
 .rodata.str1.4
                0x000000000045f0ec      0x110 util-linux/lib.a(hexdump.o)
 .rodata.add_strings
                0x000000000045f1fc       0x14 util-linux/lib.a(hexdump.o)
 .rodata.suffixes
                0x000000000045f210       0x20 util-linux/lib.a(hexdump.o)
 .rodata.str1.4
                0x000000000045f230       0x5a util-linux/lib.a(hwclock.o)
                                         0x6c (size before relaxing)
 *fill*         0x000000000045f28a        0x2 00
 .rodata.str1.4
                0x000000000045f28c       0x37 util-linux/lib.a(mkswap.o)
                                         0x40 (size before relaxing)
 *fill*         0x000000000045f2c3        0x1 00
 .rodata.str1.4
                0x000000000045f2c4      0x11c util-linux/lib.a(mount.o)
                                        0x12c (size before relaxing)
 .rodata.mount_options
                0x000000000045f3e0       0x9c util-linux/lib.a(mount.o)
 .rodata.mount_option_str
                0x000000000045f47c      0x134 util-linux/lib.a(mount.o)
 .rodata.filesystems.6999
                0x000000000045f5b0       0x24 util-linux/lib.a(mount.o)
 .rodata.str1.4
                0x000000000045f5d4        0x7 util-linux/lib.a(swaponoff.o)
                                         0x24 (size before relaxing)
 *fill*         0x000000000045f5db        0x1 00
 .rodata.str1.4
                0x000000000045f5dc       0x62 util-linux/lib.a(switch_root.o)
                                         0x80 (size before relaxing)
 *fill*         0x000000000045f63e        0x2 00
 .rodata.str1.4
                0x000000000045f640       0x66 util-linux/lib.a(umount.o)
                                         0x90 (size before relaxing)
 *fill*         0x000000000045f6a6        0x2 00
 .rodata.str1.4
                0x000000000045f6a8       0x9c archival/lib.a(bbunzip.o)
                                         0xa8 (size before relaxing)
 .rodata.str1.4
                0x000000000045f744       0x17 archival/lib.a(gzip.o)
                                         0x18 (size before relaxing)
 *fill*         0x000000000045f75b        0x1 00
 .rodata.str1.4
                0x000000000045f75c      0x125 archival/lib.a(tar.o)
                                        0x158 (size before relaxing)
 *fill*         0x000000000045f881        0x3 00
 .rodata.prefilled.7147
                0x000000000045f884       0x30 archival/lib.a(tar.o)
 .rodata.str1.4
                0x000000000045f8b4       0xd3 archival/libarchive/lib.a(data_extract_all.o)
                                         0xd4 (size before relaxing)
 *fill*         0x000000000045f987        0x1 00
 .rodata.str1.4
                0x000000000045f988       0x1a archival/libarchive/lib.a(decompress_bunzip2.o)
                                         0x38 (size before relaxing)
 *fill*         0x000000000045f9a2        0x2 00
 .rodata.str1.4
                0x000000000045f9a4       0x45 archival/libarchive/lib.a(decompress_unzip.o)
                                         0x5c (size before relaxing)
 *fill*         0x000000000045f9e9        0x3 00
 .rodata.str1.4
                0x000000000045f9ec       0xc7 archival/libarchive/lib.a(get_header_tar.o)
                                         0xc8 (size before relaxing)
 *fill*         0x000000000045fab3        0x1 00
 .rodata.str1.4
                0x000000000045fab4       0x13 archival/libarchive/lib.a(get_header_tar_gz.o)
                                         0x14 (size before relaxing)
 *fill*         0x000000000045fac7        0x1 00
 .rodata.str1.4
                0x000000000045fac8       0x37 archival/libarchive/lib.a(header_verbose_list.o)
                                         0x38 (size before relaxing)
 *fill*         0x000000000045faff        0x1 00
 .rodata.str1.4
                0x000000000045fb00        0xd archival/libarchive/lib.a(seek_by_jump.o)
                                         0x10 (size before relaxing)
 *fill*         0x000000000045fb0d        0x3 00
 .rodata.str1.4
                0x000000000045fb10        0x7 console-tools/lib.a(clear.o)
                                          0x8 (size before relaxing)
 *fill*         0x000000000045fb17        0x1 00
 .rodata.str1.4
                0x000000000045fb18       0x21 console-tools/lib.a(reset.o)
                                         0x24 (size before relaxing)
 *fill*         0x000000000045fb39        0x3 00
 .rodata.args.6896
                0x000000000045fb3c        0xc console-tools/lib.a(reset.o)
 .rodata.str1.4
                0x000000000045fb48        0x3 coreutils/lib.a(basename.o)
                                          0x4 (size before relaxing)
 .rodata.str1.4
                0x0000000000000000        0x3 coreutils/lib.a(cat.o)
                                          0x4 (size before relaxing)
 .rodata.str1.4
                0x0000000000000000        0x3 coreutils/lib.a(chgrp.o)
                                          0x4 (size before relaxing)
 *fill*         0x000000000045fb4b        0x1 00
 .rodata.str1.4
                0x000000000045fb4c       0x17 coreutils/lib.a(chmod.o)
                                         0x1c (size before relaxing)
 *fill*         0x000000000045fb63        0x1 00
 .rodata.str1.4
                0x000000000045fb64        0x3 coreutils/lib.a(chown.o)
                                          0x8 (size before relaxing)
 *fill*         0x000000000045fb67        0x1 00
 .rodata.str1.4
                0x000000000045fb68        0x3 coreutils/lib.a(chroot.o)
                                          0x8 (size before relaxing)
 *fill*         0x000000000045fb6b        0x1 00
 .rodata.str1.4
                0x000000000045fb6c       0x2a coreutils/lib.a(cp.o)
                                         0x2c (size before relaxing)
 *fill*         0x000000000045fb96        0x2 00
 .rodata.str1.4
                0x000000000045fb98       0xe2 coreutils/lib.a(cut.o)
                                         0xe8 (size before relaxing)
 *fill*         0x000000000045fc7a        0x2 00
 .rodata.str1.4
                0x000000000045fc7c       0x9b coreutils/lib.a(date.o)
                                         0xb4 (size before relaxing)
 *fill*         0x000000000045fd17        0x1 00
 .rodata.str1.4
                0x000000000045fd18       0x41 coreutils/lib.a(dd.o)
                                         0x44 (size before relaxing)
 *fill*         0x000000000045fd59        0x3 00
 .rodata.dd_suffixes
                0x000000000045fd5c       0x58 coreutils/lib.a(dd.o)
 .rodata.str1.4
                0x000000000045fdb4       0xbe coreutils/lib.a(df.o)
                                         0xd8 (size before relaxing)
 *fill*         0x000000000045fe72        0x2 00
 .rodata.str1.4
                0x000000000045fe74       0x39 coreutils/lib.a(du.o)
                                         0x58 (size before relaxing)
 .rodata.str1.4
                0x0000000000000000        0xc coreutils/lib.a(echo.o)
 *fill*         0x000000000045fead        0x3 00
 .rodata.str1.4
                0x000000000045feb0       0x13 coreutils/lib.a(env.o)
                                         0x14 (size before relaxing)
 *fill*         0x000000000045fec3        0x1 00
 .rodata.str1.4
                0x000000000045fec4       0xda coreutils/lib.a(expr.o)
                                        0x118 (size before relaxing)
 .rodata.str1.4
                0x0000000000000000       0xda coreutils/lib.a(fsync.o)
                                          0x4 (size before relaxing)
 *fill*         0x000000000045ff9e        0x2 00
 .rodata.str1.4
                0x000000000045ffa0        0xd coreutils/lib.a(head.o)
                                         0x14 (size before relaxing)
 *fill*         0x000000000045ffad        0x3 00
 .rodata.head_suffixes
                0x000000000045ffb0       0x20 coreutils/lib.a(head.o)
 .rodata.str1.4
                0x000000000045ffd0        0x5 coreutils/lib.a(hostid.o)
                                          0x8 (size before relaxing)
 *fill*         0x000000000045ffd5        0x3 00
 .rodata.str1.4
                0x000000000045ffd8       0x63 coreutils/lib.a(id.o)
                                         0x7c (size before relaxing)
 *fill*         0x000000000046003b        0x1 00
 .rodata.str1.4
                0x000000000046003c        0x7 coreutils/lib.a(ln.o)
                                         0x18 (size before relaxing)
 *fill*         0x0000000000460043        0x1 00
 .rodata.str1.4
                0x0000000000460044       0xf6 coreutils/lib.a(ls.o)
                                        0x110 (size before relaxing)
 *fill*         0x000000000046013a        0x2 00
 .rodata.opt_flags
                0x000000000046013c       0x64 coreutils/lib.a(ls.o)
 .rodata.str1.4
                0x00000000004601a0       0x7c coreutils/lib.a(md5_sha1_sum.o)
                                         0x94 (size before relaxing)
 .rodata.str1.4
                0x000000000046021c        0x4 coreutils/lib.a(mkdir.o)
                                         0x18 (size before relaxing)
 .rodata.modes_cubp
                0x0000000000460220        0xc coreutils/lib.a(mknod.o)
 .rodata.str1.4
                0x000000000046022c       0x5e coreutils/lib.a(mv.o)
                                         0x64 (size before relaxing)
 *fill*         0x000000000046028a        0x2 00
 .rodata.str1.4
                0x000000000046028c       0x10 coreutils/lib.a(nice.o)
                                         0x14 (size before relaxing)
 .rodata.str1.4
                0x000000000046029c       0x43 coreutils/lib.a(printf.o)
                                         0x5c (size before relaxing)
 *fill*         0x00000000004602df        0x1 00
 .rodata.str1.4
                0x00000000004602e0        0xa coreutils/lib.a(readlink.o)
                                         0x14 (size before relaxing)
 *fill*         0x00000000004602ea        0x2 00
 .rodata.str1.4
                0x00000000004602ec       0x29 coreutils/lib.a(rm.o)
                                         0x2c (size before relaxing)
 .rodata.str1.4
                0x0000000000000000       0x29 coreutils/lib.a(rmdir.o)
                                          0xc (size before relaxing)
 *fill*         0x0000000000460315        0x3 00
 .rodata.str1.4
                0x0000000000460318       0x11 coreutils/lib.a(seq.o)
                                         0x1c (size before relaxing)
 *fill*         0x0000000000460329        0x3 00
 .rodata.sfx    0x000000000046032c       0x28 coreutils/lib.a(sleep.o)
 .rodata.str1.4
                0x0000000000460354       0x22 coreutils/lib.a(sort.o)
                                         0x30 (size before relaxing)
 *fill*         0x0000000000460376        0x2 00
 .rodata.str1.4
                0x0000000000460378       0x7f coreutils/lib.a(tail.o)
                                         0x9c (size before relaxing)
 *fill*         0x00000000004603f7        0x1 00
 .rodata.tail_suffixes
                0x00000000004603f8       0x20 coreutils/lib.a(tail.o)
 .rodata.str1.4
                0x0000000000460418        0x3 coreutils/lib.a(tee.o)
                                          0x4 (size before relaxing)
 *fill*         0x000000000046041b        0x1 00
 .rodata.str1.4
                0x000000000046041c       0x74 coreutils/lib.a(test.o)
                                         0x80 (size before relaxing)
 .rodata.no_op.6966
                0x0000000000460490        0x4 coreutils/lib.a(test.o)
 .rodata.ops_table
                0x0000000000460494       0x50 coreutils/lib.a(test.o)
 .rodata.str1.4
                0x00000000004604e4        0x5 coreutils/lib.a(touch.o)
                                          0x8 (size before relaxing)
 *fill*         0x00000000004604e9        0x3 00
 .rodata.str1.4
                0x00000000004604ec       0x20 coreutils/lib.a(tr.o)
                                         0x30 (size before relaxing)
 .rodata.str1.4
                0x000000000046050c        0xa coreutils/lib.a(uname.o)
                                         0x1c (size before relaxing)
 *fill*         0x0000000000460516        0x2 00
 .rodata.utsname_offset
                0x0000000000460518       0x10 coreutils/lib.a(uname.o)
 .rodata.str1.4
                0x0000000000460528       0x1e coreutils/lib.a(uniq.o)
                                         0x20 (size before relaxing)
 *fill*         0x0000000000460546        0x2 00
 .rodata.str1.4
                0x0000000000460548        0xe coreutils/lib.a(wc.o)
                                         0x28 (size before relaxing)
 .rodata.str1.4
                0x0000000000000000        0x4 coreutils/lib.a(yes.o)
 .rodata.str1.4
                0x0000000000000000       0x10 coreutils/libcoreutils/lib.a(cp_mv_stat.o)
 *fill*         0x0000000000460556        0x2 00
 .rodata.str1.4
                0x0000000000460558        0x3 coreutils/libcoreutils/lib.a(getopt_mk_fifo_nod.o)
                                          0x4 (size before relaxing)
 *fill*         0x000000000046055b        0x1 00
 .rodata.str1.4
                0x000000000046055c       0x27 debianutils/lib.a(mktemp.o)
                                         0x28 (size before relaxing)
 *fill*         0x0000000000460583        0x1 00
 .rodata.str1.4
                0x0000000000460584      0x14e debianutils/lib.a(start_stop_daemon.o)
                                        0x178 (size before relaxing)
 *fill*         0x00000000004606d2        0x2 00
 .rodata.str1.4
                0x00000000004606d4        0x5 debianutils/lib.a(which.o)
                                         0x10 (size before relaxing)
 *fill*         0x00000000004606d9        0x3 00
 .rodata.str1.4
                0x00000000004606dc      0x124 editors/lib.a(awk.o)
                                        0x144 (size before relaxing)
 .rodata.evaluate
                0x0000000000460800      0x100 editors/lib.a(awk.o)
 .rodata.exec_builtin
                0x0000000000460900       0x48 editors/lib.a(awk.o)
 .rodata.tokeninfo
                0x0000000000460948      0x190 editors/lib.a(awk.o)
 .rodata.str1.4
                0x0000000000460ad8       0x10 editors/lib.a(cmp.o)
                                         0x14 (size before relaxing)
 .rodata.str1.4
                0x0000000000460ae8      0x1b1 editors/lib.a(sed.o)
                                        0x1d8 (size before relaxing)
 *fill*         0x0000000000460c99        0x3 00
 .rodata.process_files
                0x0000000000460c9c       0xf4 editors/lib.a(sed.o)
 .rodata.cmd_letters.7146
                0x0000000000460d90       0x1c editors/lib.a(sed.o)
 .rodata.str1.4
                0x0000000000460dac      0x6a7 editors/lib.a(vi.o)
                                        0x700 (size before relaxing)
 *fill*         0x0000000000461453        0x1 00
 .rodata.do_cmd
                0x0000000000461454      0x22c editors/lib.a(vi.o)
 .rodata.modifying_cmds
                0x0000000000461680       0x14 editors/lib.a(vi.o)
 .rodata.str1.4
                0x0000000000461694       0x31 findutils/lib.a(find.o)
                                         0x5c (size before relaxing)
 *fill*         0x00000000004616c5        0x3 00
 .rodata.find_suffixes.7277
                0x00000000004616c8       0x30 findutils/lib.a(find.o)
 .rodata.str1.4
                0x00000000004616f8       0x59 findutils/lib.a(grep.o)
                                         0x70 (size before relaxing)
 *fill*         0x0000000000461751        0x3 00
 .rodata.str1.4
                0x0000000000461754       0xdc findutils/lib.a(xargs.o)
                                         0xec (size before relaxing)
 .rodata.str1.4
                0x0000000000461830        0xf init/lib.a(halt.o)
                                         0x10 (size before relaxing)
 *fill*         0x000000000046183f        0x1 00
 .rodata.signals.6899
                0x0000000000461840        0x4 init/lib.a(halt.o)
 .rodata.magic.6898
                0x0000000000461844        0xc init/lib.a(halt.o)
 .rodata.str1.4
                0x0000000000461850       0x43 libbb/lib.a(bb_pwd.o)
                                         0x44 (size before relaxing)
 *fill*         0x0000000000461893        0x1 00
 .rodata.str1.4
                0x0000000000461894       0x11 libbb/lib.a(change_identity.o)
                                         0x14 (size before relaxing)
 .rodata.str1.4
                0x0000000000000000       0x10 libbb/lib.a(concat_path_file.o)
 *fill*         0x00000000004618a5        0x3 00
 .rodata.str1.4
                0x00000000004618a8      0x15e libbb/lib.a(copy_file.o)
                                        0x188 (size before relaxing)
 *fill*         0x0000000000461a06        0x2 00
 .rodata.str1.4
                0x0000000000461a08       0xdc libbb/lib.a(dump.o)
                                         0xf4 (size before relaxing)
 .rodata.str1.4
                0x0000000000000000       0x1c libbb/lib.a(execable.o)
 .rodata.str1.4
                0x0000000000000000       0x14 libbb/lib.a(find_mount_point.o)
 .rodata.str1.4
                0x0000000000000000        0x8 libbb/lib.a(get_shell_name.o)
 .rodata.str1.4
                0x0000000000461ae4       0x2b libbb/lib.a(get_volsize.o)
                                         0x30 (size before relaxing)
 *fill*         0x0000000000461b0f        0x1 00
 .rodata.str1.4
                0x0000000000461b10        0xb libbb/lib.a(getopt32.o)
                                         0x10 (size before relaxing)
 *fill*         0x0000000000461b1b        0x1 00
 .rodata.bb_argv_dash
                0x0000000000461b1c        0x8 libbb/lib.a(getopt32.o)
                0x0000000000461b1c                bb_argv_dash
 .rodata.bb_null_long_options
                0x0000000000461b24       0x10 libbb/lib.a(getopt32.o)
 .rodata.str1.4
                0x0000000000461b34       0x48 libbb/lib.a(getpty.o)
 .rodata.C_array.6922
                0x0000000000461b7c      0x100 libbb/lib.a(hash_md5_sha.o)
 .rodata.str1.4
                0x0000000000461c7c       0x33 libbb/lib.a(human_readable.o)
                                         0x38 (size before relaxing)
 *fill*         0x0000000000461caf        0x1 00
 .rodata.str1.4
                0x0000000000461cb0       0x27 libbb/lib.a(inet_common.o)
                                         0x34 (size before relaxing)
 .rodata.str1.4
                0x0000000000000000        0x4 libbb/lib.a(info_msg.o)
 .rodata.str1.4
                0x0000000000000000        0x4 libbb/lib.a(inode_hash.o)
 *fill*         0x0000000000461cd7        0x1 00
 .rodata.str1.4
                0x0000000000461cd8       0x4c libbb/lib.a(lineedit.o)
                                         0x94 (size before relaxing)
 .rodata.str1.4
                0x0000000000461d24        0x9 libbb/lib.a(login.o)
                                         0x10 (size before relaxing)
 *fill*         0x0000000000461d2d        0x3 00
 .rodata.str1.4
                0x0000000000461d30       0x14 libbb/lib.a(loop.o)
 .rodata.str1.4
                0x0000000000461d44       0x34 libbb/lib.a(make_directory.o)
 .rodata.type_chars
                0x0000000000461d78       0x10 libbb/lib.a(mode_string.o)
 .rodata.mode_chars
                0x0000000000461d88        0x8 libbb/lib.a(mode_string.o)
 .rodata.str1.4
                0x0000000000461d90       0x9a libbb/lib.a(obscure.o)
                                         0x9c (size before relaxing)
 *fill*         0x0000000000461e2a        0x2 00
 .rodata.str1.4
                0x0000000000461e2c       0x28 libbb/lib.a(parse_config.o)
 .rodata.who_mask.6893
                0x0000000000461e54       0x10 libbb/lib.a(parse_mode.o)
 .rodata.perm_mask.6894
                0x0000000000461e64       0x18 libbb/lib.a(parse_mode.o)
 .rodata.str1.4
                0x0000000000461e7c        0x3 libbb/lib.a(printable.o)
                                          0x4 (size before relaxing)
 *fill*         0x0000000000461e7f        0x1 00
 .rodata.str1.4
                0x0000000000461e80       0x1d libbb/lib.a(procps.o)
                                         0x4c (size before relaxing)
 *fill*         0x0000000000461e9d        0x3 00
 .rodata.str1.4
                0x0000000000461ea0       0x62 libbb/lib.a(progress.o)
                                         0x64 (size before relaxing)
 *fill*         0x0000000000461f02        0x2 00
 .rodata.str1.4
                0x0000000000461f04        0x7 libbb/lib.a(pw_encrypt.o)
                                          0x8 (size before relaxing)
 *fill*         0x0000000000461f0b        0x1 00
 .rodata.str1.4
                0x0000000000461f0c       0x25 libbb/lib.a(read_printf.o)
                                         0x48 (size before relaxing)
 *fill*         0x0000000000461f31        0x3 00
 .rodata.str1.4
                0x0000000000461f34       0x7a libbb/lib.a(remove_file.o)
                                         0xa0 (size before relaxing)
 *fill*         0x0000000000461fae        0x2 00
 .rodata.str1.4
                0x0000000000461fb0       0x4b libbb/lib.a(rtc.o)
                                         0x54 (size before relaxing)
 .rodata.str1.4
                0x0000000000000000       0x4b libbb/lib.a(safe_gethostname.o)
                                          0x4 (size before relaxing)
 *fill*         0x0000000000461ffb        0x1 00
 .rodata.str1.4
                0x0000000000461ffc        0x5 libbb/lib.a(safe_poll.o)
                                          0x8 (size before relaxing)
 *fill*         0x0000000000462001        0x3 00
 .rodata.str1.4
                0x0000000000462004       0x2c libbb/lib.a(setup_environment.o)
                                         0x60 (size before relaxing)
 .rodata.str1.4
                0x0000000000000000        0x4 libbb/lib.a(single_argv.o)
 .rodata.str1.4
                0x0000000000462030        0xd libbb/lib.a(u_signal_names.o)
                                         0x10 (size before relaxing)
 *fill*         0x000000000046203d        0x3 00
 .rodata.signals
                0x0000000000462040       0xe0 libbb/lib.a(u_signal_names.o)
 .rodata.str1.4
                0x0000000000462120       0x64 libbb/lib.a(update_passwd.o)
                                         0x84 (size before relaxing)
 .rodata.str1.4
                0x0000000000000000       0x10 libbb/lib.a(vfork_daemon_rexec.o)
 .rodata.str1.4
                0x0000000000000000        0x8 libbb/lib.a(wfopen.o)
 .rodata.str1.4
                0x0000000000000000        0x4 libbb/lib.a(wfopen_input.o)
 .rodata.str1.4
                0x0000000000462184       0x4d libbb/lib.a(xatonum.o)
                                         0x64 (size before relaxing)
 *fill*         0x00000000004621d1        0x3 00
 .rodata.str1.4
                0x00000000004621d4       0x73 libbb/lib.a(xconnect.o)
                                         0x7c (size before relaxing)
 *fill*         0x0000000000462247        0x1 00
 .rodata.str1.4
                0x0000000000462248        0x7 libbb/lib.a(xgetcwd.o)
                                          0x8 (size before relaxing)
 *fill*         0x000000000046224f        0x1 00
 .rodata.str1.4
                0x0000000000462250       0x29 libbb/lib.a(xreadlink.o)
                                         0x2c (size before relaxing)
 *fill*         0x0000000000462279        0x3 00
 .rodata.str1.4
                0x000000000046227c       0x13 libbb/lib.a(xregcomp.o)
                                         0x14 (size before relaxing)
 *fill*         0x000000000046228f        0x1 00
 .rodata.str1.4
                0x0000000000462290       0x18 libpwdgrp/lib.a(uidgid_get.o)
 .rodata.applet_nameofs
                0x00000000004622a8       0xf4 libbb/lib.a(appletlib.o)
                0x00000000004622a8                applet_nameofs
 .rodata.ife_print_flags_mask.7325
                0x000000000046239c       0x1a networking/lib.a(interface.o)
 .rodata.MAC_BCAST_ADDR
                0x00000000004623b6        0x6 networking/udhcp/lib.a(common.o)
                0x00000000004623b6                MAC_BCAST_ADDR
 .rodata.permmask.10258
                0x00000000004623bc       0x12 shell/lib.a(ash.o)
 .rodata.cplens
                0x00000000004623ce       0x3e archival/libarchive/lib.a(decompress_unzip.o)
 .rodata.cpdist
                0x000000000046240c       0x3c archival/libarchive/lib.a(decompress_unzip.o)
 .rodata.mask_bits
                0x0000000000462448       0x22 archival/libarchive/lib.a(decompress_unzip.o)
 .rodata.PRIMES
                0x000000000046246a        0xa editors/lib.a(awk.o)
 .rodata.applet_names
                0x0000000000462474      0x2cc libbb/lib.a(appletlib.o)
                0x0000000000462474                applet_names
 .rodata.packed_usage
                0x0000000000462740     0x2c21 libbb/lib.a(appletlib.o)
 .rodata.bb_PATH_root_path
                0x0000000000465361       0x23 libbb/lib.a(messages.o)
                0x0000000000465361                bb_PATH_root_path
 .rodata.bb_default_login_shell
                0x0000000000465384        0x9 libbb/lib.a(messages.o)
                0x0000000000465384                bb_default_login_shell
 .rodata.bb_busybox_exec_path
                0x000000000046538d        0xf libbb/lib.a(messages.o)
                0x000000000046538d                bb_busybox_exec_path
 .rodata.bb_hexdigits_upcase
                0x000000000046539c       0x11 libbb/lib.a(messages.o)
                0x000000000046539c                bb_hexdigits_upcase
 .rodata.bb_msg_standard_output
                0x00000000004653ad       0x10 libbb/lib.a(messages.o)
                0x00000000004653ad                bb_msg_standard_output
 .rodata.bb_msg_standard_input
                0x00000000004653bd        0xf libbb/lib.a(messages.o)
                0x00000000004653bd                bb_msg_standard_input
 .rodata.bb_msg_invalid_arg
                0x00000000004653cc       0x1e libbb/lib.a(messages.o)
                0x00000000004653cc                bb_msg_invalid_arg
 .rodata.bb_msg_requires_arg
                0x00000000004653ea       0x18 libbb/lib.a(messages.o)
                0x00000000004653ea                bb_msg_requires_arg
 .rodata.bb_msg_you_must_be_root
                0x0000000000465402       0x11 libbb/lib.a(messages.o)
                0x0000000000465402                bb_msg_you_must_be_root
 .rodata.bb_msg_perm_denied_are_you_root
                0x0000000000465413       0x22 libbb/lib.a(messages.o)
                0x0000000000465413                bb_msg_perm_denied_are_you_root
 .rodata.bb_msg_can_not_create_raw_socket
                0x0000000000465435       0x18 libbb/lib.a(messages.o)
                0x0000000000465435                bb_msg_can_not_create_raw_socket
 .rodata.bb_msg_unknown
                0x000000000046544d        0xa libbb/lib.a(messages.o)
                0x000000000046544d                bb_msg_unknown
 .rodata.bb_msg_invalid_date
                0x0000000000465457       0x12 libbb/lib.a(messages.o)
                0x0000000000465457                bb_msg_invalid_date
 .rodata.bb_msg_memory_exhausted
                0x0000000000465469        0xe libbb/lib.a(messages.o)
                0x0000000000465469                bb_msg_memory_exhausted
 .rodata.bb_banner
                0x0000000000465477       0x2a libbb/lib.a(messages.o)
                0x0000000000465477                bb_banner
 .rodata.MonAry
                0x00000000004654a1       0x25 miscutils/lib.a(crond.o)
 .rodata.DowAry
                0x00000000004654c6       0x16 miscutils/lib.a(crond.o)
 .rodata.controls
                0x00000000004654dc       0x21 miscutils/lib.a(less.o)
 .rodata.ctrlconv
                0x00000000004654fd       0x21 miscutils/lib.a(less.o)
 .rodata.default_format
                0x000000000046551e       0x17 miscutils/lib.a(time.o)
 .rodata.long_format
                0x0000000000465535      0x2cb miscutils/lib.a(time.o)
 .rodata.posix_format
                0x0000000000465800       0x17 miscutils/lib.a(time.o)
 .rodata.keywords.7122
                0x0000000000465817       0x6b networking/lib.a(brctl.o)
 .rodata.no_yes.7168
                0x0000000000465882       0x17 networking/lib.a(brctl.o)
 .rodata.ops.7171
                0x0000000000465899        0x4 networking/lib.a(brctl.o)
 .rodata.ops.7172
                0x000000000046589d        0x3 networking/lib.a(brctl.o)
 .rodata.ife_print_flags_strs.7324
                0x00000000004658a0       0x6a networking/lib.a(interface.o)
 .rodata.TRext  0x000000000046590a        0xf networking/lib.a(interface.o)
 .rodata.flagchars
                0x0000000000465919        0x9 networking/lib.a(route.o)
 .rodata.tbl_verb
                0x0000000000465922       0x15 networking/lib.a(route.o)
 .rodata.tbl_ipvx
                0x0000000000465937       0x68 networking/lib.a(route.o)
 .rodata.tbl_hash_net_host
                0x000000000046599f        0xf networking/lib.a(route.o)
 .rodata.escapecharis
                0x00000000004659ae       0x17 networking/lib.a(telnet.o)
 .rodata.iacs_to_send.6970
                0x00000000004659c5        0xc networking/lib.a(telnetd.o)
 .rodata.IACIAC.6950
                0x00000000004659d1        0x2 networking/lib.a(telnetd.o)
 .rodata.cmds   0x00000000004659d3       0x50 networking/lib.a(vconfig.o)
 .rodata.name_types
                0x0000000000465a23       0x4c networking/lib.a(vconfig.o)
 .rodata.wget_longopts.7067
                0x0000000000465a6f       0x91 networking/lib.a(wget.o)
 .rodata.keywords.7047
                0x0000000000465b00       0x2b networking/lib.a(wget.o)
 .rodata.udhcpc_longopts
                0x0000000000465b2b       0xef networking/udhcp/lib.a(dhcpc.o)
 .rodata.dhcp_option_lengths
                0x0000000000465c1a        0xe networking/udhcp/lib.a(common.o)
                0x0000000000465c1a                dhcp_option_lengths
 .rodata.dhcp_option_strings
                0x0000000000465c28       0xe5 networking/udhcp/lib.a(common.o)
                0x0000000000465c28                dhcp_option_strings
 .rodata.spclchars.8488
                0x0000000000465d0d        0xa shell/lib.a(ash.o)
 .rodata.dolatstr
                0x0000000000465d17        0x5 shell/lib.a(ash.o)
 .rodata.metachars.8807
                0x0000000000465d1c        0x4 shell/lib.a(ash.o)
 .rodata.qchars.8351
                0x0000000000465d20        0x3 shell/lib.a(ash.o)
 .rodata.permuser.10256
                0x0000000000465d23        0x3 shell/lib.a(ash.o)
 .rodata.permmode.10257
                0x0000000000465d26        0x3 shell/lib.a(ash.o)
 .rodata.timescmd_str
                0x0000000000465d29        0x9 shell/lib.a(ash.o)
 .rodata.types.9983
                0x0000000000465d32        0x6 shell/lib.a(ash.o)
 .rodata.C_escapes.9892
                0x0000000000465d38       0x12 shell/lib.a(ash.o)
 .rodata.xxreadtoken_chars
                0x0000000000465d4a        0x7 shell/lib.a(ash.o)
 .rodata.xxreadtoken_tokens
                0x0000000000465d51        0xa shell/lib.a(ash.o)
 .rodata.op_tokens
                0x0000000000465d5b       0x8d shell/lib.a(math.o)
 .rodata.defifsvar
                0x0000000000465de8        0x8 shell/lib.a(shell_common.o)
                0x0000000000465de8                defifsvar
 .rodata.hexdump_opts
                0x0000000000465df0       0x10 util-linux/lib.a(hexdump.o)
 .rodata.add_first
                0x0000000000465e00        0xc util-linux/lib.a(hexdump.o)
 .rodata.SWAPSPACE2
                0x0000000000465e0c        0xa util-linux/lib.a(mkswap.o)
 .rodata.extra_lbits
                0x0000000000465e16       0x1d archival/lib.a(gzip.o)
 .rodata.extra_dbits
                0x0000000000465e33       0x1e archival/lib.a(gzip.o)
 .rodata.extra_blbits
                0x0000000000465e51       0x13 archival/lib.a(gzip.o)
 .rodata.bl_order
                0x0000000000465e64       0x13 archival/lib.a(gzip.o)
 .rodata.cplext
                0x0000000000465e77       0x1f archival/libarchive/lib.a(decompress_unzip.o)
 .rodata.cpdext
                0x0000000000465e96       0x1e archival/libarchive/lib.a(decompress_unzip.o)
 .rodata.border
                0x0000000000465eb4       0x13 archival/libarchive/lib.a(decompress_unzip.o)
 .rodata.optstring
                0x0000000000465ec7        0xb coreutils/lib.a(cut.o)
 .rodata._op_on_field.6958
                0x0000000000465ed2       0x1f coreutils/lib.a(cut.o)
 .rodata.date_longopts
                0x0000000000465ef1       0x45 coreutils/lib.a(date.o)
 .rodata.isoformats.6921
                0x0000000000465f36       0x1c coreutils/lib.a(date.o)
 .rodata.keywords.6927
                0x0000000000465f52       0x27 coreutils/lib.a(dd.o)
 .rodata.conv_words.6928
                0x0000000000465f79       0x1c coreutils/lib.a(dd.o)
 .rodata.keywords.7078
                0x0000000000465f95       0x21 coreutils/lib.a(expr.o)
 .rodata.head_opts
                0x0000000000465fb6        0x7 coreutils/lib.a(head.o)
 .rodata.color_str.7177
                0x0000000000465fbd       0x22 coreutils/lib.a(ls.o)
 .rodata.ls_longopts.7176
                0x0000000000465fdf        0x9 coreutils/lib.a(ls.o)
 .rodata.ls_options
                0x0000000000465fe8       0x20 coreutils/lib.a(ls.o)
 .rodata.modes_chars
                0x0000000000466008        0x8 coreutils/lib.a(mknod.o)
 .rodata.fmt.6920
                0x0000000000466010       0x2d coreutils/lib.a(mv.o)
 .rodata.format_chars.6983
                0x000000000046603d        0xe coreutils/lib.a(printf.o)
 .rodata.OPT_STR
                0x000000000046604b       0x18 coreutils/lib.a(sort.o)
 .rodata.ops_texts
                0x0000000000466063       0x7c coreutils/lib.a(test.o)
 .rodata.uname_longopts.6913
                0x00000000004660df       0x89 coreutils/lib.a(uname.o)
 .rodata.options
                0x0000000000466168        0xa coreutils/lib.a(uname.o)
 .rodata.vNames
                0x0000000000466172       0x6b editors/lib.a(awk.o)
 .rodata.vValues
                0x00000000004661dd       0x19 editors/lib.a(awk.o)
 .rodata.EMSG_INV_FMT
                0x00000000004661f6       0x19 editors/lib.a(awk.o)
 .rodata.EMSG_UNEXP_TOKEN
                0x000000000046620f       0x11 editors/lib.a(awk.o)
 .rodata.EMSG_UNEXP_EOS
                0x0000000000466220       0x19 editors/lib.a(awk.o)
 .rodata.tokenlist
                0x0000000000466239      0x1bf editors/lib.a(awk.o)
 .rodata.EMSG_INTERNAL_ERROR
                0x00000000004663f8        0xf editors/lib.a(awk.o)
 .rodata.EMSG_NOT_ARRAY
                0x0000000000466407        0xd editors/lib.a(awk.o)
 .rodata.EMSG_POSSIBLE_ERROR
                0x0000000000466414       0x16 editors/lib.a(awk.o)
 .rodata.EMSG_UNDEF_FUNC
                0x000000000046642a       0x1b editors/lib.a(awk.o)
 .rodata.EMSG_DIV_BY_ZERO
                0x0000000000466445       0x11 editors/lib.a(awk.o)
 .rodata.EMSG_TOO_FEW_ARGS
                0x0000000000466456       0x1e editors/lib.a(awk.o)
 .rodata.opt_chars
                0x0000000000466474        0x3 editors/lib.a(cmp.o)
 .rodata.fmt_differ
                0x0000000000466477       0x22 editors/lib.a(cmp.o)
 .rodata.fmt_l_opt
                0x0000000000466499       0x16 editors/lib.a(cmp.o)
 .rodata.fmt_eof
                0x00000000004664af       0x10 editors/lib.a(cmp.o)
 .rodata.semicolon_whitespace
                0x00000000004664bf        0x7 editors/lib.a(sed.o)
 .rodata.params.7242
                0x00000000004664c6       0x90 findutils/lib.a(find.o)
 .rodata.index_str
                0x0000000000466556       0x10 libbb/lib.a(dump.o)
 .rodata.size_conv_str
                0x0000000000466566       0x19 libbb/lib.a(dump.o)
 .rodata.lcc    0x000000000046657f        0x7 libbb/lib.a(dump.o)
 .rodata.conv_str
                0x0000000000466586       0x21 libbb/lib.a(dump.o)
 .rodata.list.7094
                0x00000000004665a7       0x7f libbb/lib.a(dump.o)
 .rodata.P_array.6923
                0x0000000000466626       0x40 libbb/lib.a(hash_md5_sha.o)
 .rodata.S_array.6929
                0x0000000000466666       0x10 libbb/lib.a(hash_md5_sha.o)
 .rodata.unit_chars.6894
                0x0000000000466676        0x9 libbb/lib.a(human_readable.o)
 .rodata.null_str
                0x000000000046667f        0x1 libbb/lib.a(lineedit.o)
 .rodata.fmtstr_d
                0x0000000000466680        0xd libbb/lib.a(login.o)
 .rodata.fmtstr_t
                0x000000000046668d        0x9 libbb/lib.a(login.o)
 .rodata.forbid
                0x0000000000466696       0x96 libbb/lib.a(login.o)
 .rodata.who_chars.6895
                0x000000000046672c        0x5 libbb/lib.a(parse_mode.o)
 .rodata.perm_chars.6896
                0x0000000000466731        0x7 libbb/lib.a(parse_mode.o)
 .rodata.charmap.6900
                0x0000000000466738       0x14 libbb/lib.a(process_escape_sequence.o)
 .rodata.esccmds.6897
                0x000000000046674c       0x51 libbb/lib.a(read_key.o)
 .rodata.bb_uuenc_tbl_base64
                0x000000000046679d       0x43 libbb/lib.a(uuencode.o)
                0x000000000046679d                bb_uuenc_tbl_base64

.rodata1
 *(SORT(.rodata1))

.sdata2
 *(SORT(.sdata2) SORT(.sdata2.*) SORT(.gnu.linkonce.s2.*))

.sbss2
 *(SORT(.sbss2) SORT(.sbss2.*) SORT(.gnu.linkonce.sb2.*))

.eh_frame_hdr   0x00000000004667e0        0x0
 *(SORT(.eh_frame_hdr))
 .eh_frame_hdr  0x0000000000000000        0x0 /home/shizhai/new_zhongwang/trunk/staging_dir/toolchain-mips_r2_gcc-4.6-linaro_uClibc-0.9.33.2/lib/gcc/mips-openwrt-linux-uclibc/4.6.4/../../../../mips-openwrt-linux-uclibc/lib/crtn.o

.eh_frame       0x00000000004667e0        0x4
 *(SORT(.eh_frame))
 .eh_frame      0x00000000004667e0        0x4 /home/shizhai/new_zhongwang/trunk/staging_dir/toolchain-mips_r2_gcc-4.6-linaro_uClibc-0.9.33.2/lib/gcc/mips-openwrt-linux-uclibc/4.6.4/crtend.o

.gcc_except_table
 *(SORT(.gcc_except_table) SORT(.gcc_except_table.*))

.exception_ranges
 *(SORT(.exception_ranges) SORT(.exception_ranges*))
                0x00000000004667e4                . = (ALIGN (0x10000) - ((0x10000 - .) & 0xffff))
                0x00000000004767e4                . = DATA_SEGMENT_ALIGN (0x10000, 0x1000)

.eh_frame
 *(SORT(.eh_frame))

.gcc_except_table
 *(SORT(.gcc_except_table) SORT(.gcc_except_table.*))

.exception_ranges
 *(SORT(.exception_ranges) SORT(.exception_ranges*))

.tdata
 *(SORT(.tdata) SORT(.tdata.*) SORT(.gnu.linkonce.td.*))

.tbss
 *(SORT(.tbss) SORT(.tbss.*) SORT(.gnu.linkonce.tb.*))
 *(SORT(.tcommon))

.preinit_array  0x00000000004767e4        0x0
                0x00000000004767e4                PROVIDE (__preinit_array_start, .)
 *(SORT(.preinit_array))
                0x00000000004767e4                PROVIDE (__preinit_array_end, .)

.init_array     0x00000000004767e4        0x0
                0x00000000004767e4                PROVIDE (__init_array_start, .)
 *(SORT(.init_array.*))
 *(SORT(.init_array))
                0x00000000004767e4                PROVIDE (__init_array_end, .)

.fini_array     0x00000000004767e4        0x0
                0x00000000004767e4                PROVIDE (__fini_array_start, .)
 *(SORT(.fini_array.*))
 *(SORT(.fini_array))
                0x00000000004767e4                PROVIDE (__fini_array_end, .)

.ctors          0x00000000004767e4        0x8
 *crtbegin.o(SORT(.ctors))
 .ctors         0x00000000004767e4        0x4 /home/shizhai/new_zhongwang/trunk/staging_dir/toolchain-mips_r2_gcc-4.6-linaro_uClibc-0.9.33.2/lib/gcc/mips-openwrt-linux-uclibc/4.6.4/crtbegin.o
 *crtbegin?.o(SORT(.ctors))
 *(SORT(EXCLUDE_FILE(*crtend?.o *crtend.o) .ctors))
 *(SORT(.ctors.*))
 *(SORT(.ctors))
 .ctors         0x00000000004767e8        0x4 /home/shizhai/new_zhongwang/trunk/staging_dir/toolchain-mips_r2_gcc-4.6-linaro_uClibc-0.9.33.2/lib/gcc/mips-openwrt-linux-uclibc/4.6.4/crtend.o

.dtors          0x00000000004767ec        0x8
 *crtbegin.o(SORT(.dtors))
 .dtors         0x00000000004767ec        0x4 /home/shizhai/new_zhongwang/trunk/staging_dir/toolchain-mips_r2_gcc-4.6-linaro_uClibc-0.9.33.2/lib/gcc/mips-openwrt-linux-uclibc/4.6.4/crtbegin.o
 *crtbegin?.o(SORT(.dtors))
 *(SORT(EXCLUDE_FILE(*crtend?.o *crtend.o) .dtors))
 *(SORT(.dtors.*))
 *(SORT(.dtors))
 .dtors         0x00000000004767f0        0x4 /home/shizhai/new_zhongwang/trunk/staging_dir/toolchain-mips_r2_gcc-4.6-linaro_uClibc-0.9.33.2/lib/gcc/mips-openwrt-linux-uclibc/4.6.4/crtend.o
                0x00000000004767f0                __DTOR_END__

.jcr
 *(SORT(.jcr))

.data.rel.ro
 *(SORT(.data.rel.ro.local*) SORT(.gnu.linkonce.d.rel.ro.local.*))
 *(SORT(.data.rel.ro*) SORT(.gnu.linkonce.d.rel.ro.*))
                0x00000000004767f4                . = DATA_SEGMENT_RELRO_END (., 0x0)

.data           0x00000000004767f4       0x16
                0x00000000004767f4                _fdata = .
 *(SORT(.data) SORT(.data.*) SORT(.gnu.linkonce.d.*))
 .data.msg_eol  0x00000000004767f4        0x4 libbb/lib.a(verror_msg.o)
                0x00000000004767f4                msg_eol
 .data.sockfd   0x00000000004767f8        0x4 networking/udhcp/lib.a(dhcpc.o)
 .data.g_parsefile
                0x00000000004767fc        0x4 shell/lib.a(ash.o)
 .data.ttyfd    0x0000000000476800        0x4 shell/lib.a(ash.o)
 .data.builtinloc
                0x0000000000476804        0x4 shell/lib.a(ash.o)
 .data.xfunc_error_retval
                0x0000000000476808        0x1 libbb/lib.a(default_error_retval.o)
                0x0000000000476808                xfunc_error_retval
 .data.logmode  0x0000000000476809        0x1 libbb/lib.a(verror_msg.o)
                0x0000000000476809                logmode

.rld_map        0x000000000047680c        0x4
 .rld_map       0x000000000047680c        0x4 /home/shizhai/new_zhongwang/trunk/staging_dir/toolchain-mips_r2_gcc-4.6-linaro_uClibc-0.9.33.2/lib/gcc/mips-openwrt-linux-uclibc/4.6.4/../../../../mips-openwrt-linux-uclibc/lib/crt1.o
                0x000000000047680c                __RLD_MAP

.data1
 *(SORT(.data1))

.got.plt        0x0000000000476810      0x4e8
 *(SORT(.got.plt))
 .got.plt       0x0000000000476810      0x4e8 /home/shizhai/new_zhongwang/trunk/staging_dir/toolchain-mips_r2_gcc-4.6-linaro_uClibc-0.9.33.2/lib/gcc/mips-openwrt-linux-uclibc/4.6.4/../../../../mips-openwrt-linux-uclibc/lib/crt1.o
                0x0000000000476cf8                . = .
                0x000000000047ecf0                _gp = (ALIGN (0x10) + 0x7ff0)

.got            0x0000000000476d00       0x20
 *(SORT(.got))
 .got           0x0000000000476d00       0x20 /home/shizhai/new_zhongwang/trunk/staging_dir/toolchain-mips_r2_gcc-4.6-linaro_uClibc-0.9.33.2/lib/gcc/mips-openwrt-linux-uclibc/4.6.4/../../../../mips-openwrt-linux-uclibc/lib/crt1.o
                0x0000000000476d00                _GLOBAL_OFFSET_TABLE_

.sdata          0x0000000000476d20        0x4
 *(SORT(.sdata) SORT(.sdata.*) SORT(.gnu.linkonce.s.*))
 .sdata         0x0000000000476d20        0x4 /home/shizhai/new_zhongwang/trunk/staging_dir/toolchain-mips_r2_gcc-4.6-linaro_uClibc-0.9.33.2/lib/gcc/mips-openwrt-linux-uclibc/4.6.4/crtbegin.o
                0x0000000000476d20                __dso_handle

.lit8
 *(SORT(.lit8))

.lit4
 *(SORT(.lit4))
                0x0000000000476d24                _edata = .
                0x0000000000476d24                PROVIDE (edata, .)
                0x0000000000476d24                __bss_start = .
                0x0000000000476d24                _fbss = .

.sbss           0x0000000000476d24       0x37
 *(SORT(.dynsbss))
 *(SORT(.sbss) SORT(.sbss.*) SORT(.gnu.linkonce.sb.*))
 *(SORT(.scommon))
 .scommon       0x0000000000476d24        0x4 libbb/lib.a(appletlib.o)
                0x0000000000476d24                applet_name
 .scommon       0x0000000000476d28        0x8 libbb/lib.a(ptr_to_globals.o)
                0x0000000000476d28                bb_errno
                0x0000000000476d2c                ptr_to_globals
 .scommon       0x0000000000476d30        0x4 libbb/lib.a(xfunc_die.o)
                0x0000000000476d30                die_sleep
 .scommon       0x0000000000476d34        0xc shell/lib.a(ash_ptr_hack.o)
                0x0000000000476d34                ash_ptr_to_globals_memstack
                0x0000000000476d38                ash_ptr_to_globals_misc
                0x0000000000476d3c                ash_ptr_to_globals_var
 .scommon       0x0000000000476d40        0x4 coreutils/lib.a(test_ptr_hack.o)
                0x0000000000476d40                test_ptr_to_statics
 .scommon       0x0000000000476d44        0x4 libbb/lib.a(crc32.o)
                0x0000000000476d44                global_crc32_table
 .scommon       0x0000000000476d48        0xc libbb/lib.a(getopt32.o)
                0x0000000000476d48                opt_complementary
                0x0000000000476d4c                option_mask32
                0x0000000000476d50                applet_long_options
 .scommon       0x0000000000476d54        0x4 libbb/lib.a(lineedit_ptr_hack.o)
                0x0000000000476d54                lineedit_ptr_to_statics
 .scommon       0x0000000000476d58        0x1 networking/lib.a(interface.o)
                0x0000000000476d58                interface_opt_a
 .scommon       0x0000000000476d59        0x1 libbb/lib.a(pidfile.o)
                0x0000000000476d59                wrote_pidfile
 .scommon       0x0000000000476d5a        0x1 libbb/lib.a(signals.o)
                0x0000000000476d5a                bb_got_signal

.bss            0x0000000000476d60     0x1250
 *(SORT(.dynbss))
 .dynbss        0x0000000000476d60       0x3c /home/shizhai/new_zhongwang/trunk/staging_dir/toolchain-mips_r2_gcc-4.6-linaro_uClibc-0.9.33.2/lib/gcc/mips-openwrt-linux-uclibc/4.6.4/../../../../mips-openwrt-linux-uclibc/lib/crt1.o
                0x0000000000476d60                stdout
                0x0000000000476d64                daylight
                0x0000000000476d68                optarg
                0x0000000000476d6c                __environ
                0x0000000000476d6c                environ
                0x0000000000476d70                optind
                0x0000000000476d74                __stdin
                0x0000000000476d78                stdin
                0x0000000000476d80                timezone
                0x0000000000476d90                stderr
                0x0000000000476d98                __stdout
 *(SORT(.bss) SORT(.bss.*) SORT(.gnu.linkonce.b.*))
 *fill*         0x0000000000476d9c        0x4 00
 .bss           0x0000000000476da0       0x10 /home/shizhai/new_zhongwang/trunk/staging_dir/toolchain-mips_r2_gcc-4.6-linaro_uClibc-0.9.33.2/lib/gcc/mips-openwrt-linux-uclibc/4.6.4/crtbegin.o
 .bss.ruid      0x0000000000476db0        0x4 libbb/lib.a(appletlib.o)
 .bss.local_buf
                0x0000000000476db4        0xc libbb/lib.a(xfuncs.o)
 .bss.waitonly  0x0000000000476dc0        0x4 miscutils/lib.a(lock.o)
 .bss.shared    0x0000000000476dc4        0x4 miscutils/lib.a(lock.o)
 .bss.unlock    0x0000000000476dc8        0x4 miscutils/lib.a(lock.o)
 .bss.file      0x0000000000476dcc        0x4 miscutils/lib.a(lock.o)
 .bss.fd        0x0000000000476dd0        0x4 miscutils/lib.a(lock.o)
 .bss.g_filename
                0x0000000000476dd4        0x4 modutils/lib.a(insmod.o)
 .bss.buff.7067
                0x0000000000476dd8        0x4 networking/lib.a(interface.o)
 .bss.buff.7077
                0x0000000000476ddc        0x4 networking/lib.a(interface.o)
 .bss.buff.7086
                0x0000000000476de0        0x4 networking/lib.a(interface.o)
 .bss.int_list  0x0000000000476de4        0x4 networking/lib.a(interface.o)
 .bss.buff.7238
                0x0000000000476de8        0x4 networking/lib.a(interface.o)
 .bss.int_last  0x0000000000476dec        0x4 networking/lib.a(interface.o)
 .bss.msgs.7543
                0x0000000000476df0        0x4 networking/udhcp/lib.a(dhcpc.o)
 .bss.signal_pipe
                0x0000000000476df4        0x8 networking/udhcp/lib.a(signalpipe.o)
 .bss.argbackq  0x0000000000476dfc        0x4 shell/lib.a(ash.o)
 .bss.expdest   0x0000000000476e00        0x4 shell/lib.a(ash.o)
 .bss.ifsfirst  0x0000000000476e04       0x10 shell/lib.a(ash.o)
 .bss.ifslastp  0x0000000000476e14        0x4 shell/lib.a(ash.o)
 .bss.exparg    0x0000000000476e18        0x8 shell/lib.a(ash.o)
 .bss.commandname
                0x0000000000476e20        0x4 shell/lib.a(ash.o)
 .bss.startlinno
                0x0000000000476e24        0x4 shell/lib.a(ash.o)
 .bss.basepf    0x0000000000476e28       0x34 shell/lib.a(ash.o)
 .bss.njobs     0x0000000000476e5c        0x4 shell/lib.a(ash.o)
 .bss.jobtab    0x0000000000476e60        0x4 shell/lib.a(ash.o)
 .bss.curjob    0x0000000000476e64        0x4 shell/lib.a(ash.o)
 .bss.jobless   0x0000000000476e68        0x4 shell/lib.a(ash.o)
 .bss.atab      0x0000000000476e6c        0x4 shell/lib.a(ash.o)
 .bss.cmdnextc  0x0000000000476e70        0x4 shell/lib.a(ash.o)
 .bss.loopnest  0x0000000000476e74        0x4 shell/lib.a(ash.o)
 .bss.skipcount
                0x0000000000476e78        0x4 shell/lib.a(ash.o)
 .bss.pathopt   0x0000000000476e7c        0x4 shell/lib.a(ash.o)
 .bss.argptr    0x0000000000476e80        0x4 shell/lib.a(ash.o)
 .bss.optptr    0x0000000000476e84        0x4 shell/lib.a(ash.o)
 .bss.optionarg
                0x0000000000476e88        0x4 shell/lib.a(ash.o)
 .bss.initialpgrp
                0x0000000000476e8c        0x4 shell/lib.a(ash.o)
 .bss.funcnest  0x0000000000476e90        0x4 shell/lib.a(ash.o)
 .bss.cmdenviron
                0x0000000000476e94        0x4 shell/lib.a(ash.o)
 .bss.localvars
                0x0000000000476e98        0x4 shell/lib.a(ash.o)
 .bss.cmdtable  0x0000000000476e9c        0x4 shell/lib.a(ash.o)
 .bss.wordtext  0x0000000000476ea0        0x4 shell/lib.a(ash.o)
 .bss.backquotelist
                0x0000000000476ea4        0x4 shell/lib.a(ash.o)
 .bss.line_input_state
                0x0000000000476ea8        0x4 shell/lib.a(ash.o)
 .bss.cmdedit_prompt
                0x0000000000476eac        0x4 shell/lib.a(ash.o)
 .bss.heredoc   0x0000000000476eb0        0x4 shell/lib.a(ash.o)
 .bss.redirnode
                0x0000000000476eb4        0x4 shell/lib.a(ash.o)
 .bss.heredoclist
                0x0000000000476eb8        0x4 shell/lib.a(ash.o)
 .bss.lastcmdentry
                0x0000000000476ebc        0x4 shell/lib.a(ash.o)
 .bss.funcblocksize
                0x0000000000476ec0        0x4 shell/lib.a(ash.o)
 .bss.funcstringsize
                0x0000000000476ec4        0x4 shell/lib.a(ash.o)
 .bss.funcblock
                0x0000000000476ec8        0x4 shell/lib.a(ash.o)
 .bss.funcstring
                0x0000000000476ecc        0x4 shell/lib.a(ash.o)
 .bss.includes  0x0000000000476ed0        0x4 editors/lib.a(awk.o)
 .bss.passwd.6902
                0x0000000000476ed4        0x4 libbb/lib.a(bb_askpass.o)
 .bss.str.6895  0x0000000000476ed8        0x4 libbb/lib.a(human_readable.o)
 .bss.cache.6919
                0x0000000000476edc        0x4 libbb/lib.a(inet_common.o)
 .bss.ino_dev_hashtable
                0x0000000000476ee0        0x4 libbb/lib.a(inode_hash.o)
 .bss.buf.6894  0x0000000000476ee4        0xc libbb/lib.a(mode_string.o)
 .bss.cur_saved.6898
                0x0000000000476ef0        0x4 libbb/lib.a(printable_string.o)
 .bss.saved.6897
                0x0000000000476ef4       0x10 libbb/lib.a(printable_string.o)
 .bss.username  0x0000000000476f04        0x8 libbb/lib.a(procps.o)
 .bss.groupname
                0x0000000000476f0c        0x8 libbb/lib.a(procps.o)
 .bss.proc_read.7208
                0x0000000000476f14        0x1 networking/lib.a(interface.o)
 .bss.state     0x0000000000476f15        0x1 networking/udhcp/lib.a(dhcpc.o)
 .bss.listen_mode
                0x0000000000476f16        0x1 networking/udhcp/lib.a(dhcpc.o)
 .bss.exitstatus
                0x0000000000476f17        0x1 shell/lib.a(ash.o)
 .bss.evalskip  0x0000000000476f18        0x1 shell/lib.a(ash.o)
 .bss.back_exitstatus
                0x0000000000476f19        0x1 shell/lib.a(ash.o)
 .bss.doing_jobctl
                0x0000000000476f1a        0x1 shell/lib.a(ash.o)
 .bss.checkkwd  0x0000000000476f1b        0x1 shell/lib.a(ash.o)
 .bss.is_interactive.9308
                0x0000000000476f1c        0x1 shell/lib.a(ash.o)
 .bss.did_banner.9309
                0x0000000000476f1d        0x1 shell/lib.a(ash.o)
 .bss.tokpushback
                0x0000000000476f1e        0x1 shell/lib.a(ash.o)
 .bss.doprompt  0x0000000000476f1f        0x1 shell/lib.a(ash.o)
 .bss.needprompt
                0x0000000000476f20        0x1 shell/lib.a(ash.o)
 .bss.parsebackquote
                0x0000000000476f21        0x1 shell/lib.a(ash.o)
 .bss.lasttoken
                0x0000000000476f22        0x1 shell/lib.a(ash.o)
 .bss.quoteflag
                0x0000000000476f23        0x1 shell/lib.a(ash.o)
 .bss.warned.7077
                0x0000000000476f24        0x1 archival/libarchive/lib.a(get_header_tar.o)
 *(SORT(COMMON))
 *fill*         0x0000000000476f25        0x3 00
 COMMON         0x0000000000476f28     0x1001 libbb/lib.a(messages.o)
                0x0000000000476f28                bb_common_bufsiz1
 *fill*         0x0000000000477f29        0x7 00
 COMMON         0x0000000000477f30       0x80 libbb/lib.a(xfunc_die.o)
                0x0000000000477f30                die_jmp
                0x0000000000477fb0                . = ALIGN ((. != 0x0)?0x4:0x1)
                0x0000000000477fb0                . = ALIGN (0x4)
                0x0000000000477fb0                . = ALIGN (0x4)
                0x0000000000477fb0                _end = .
                0x0000000000477fb0                PROVIDE (end, .)
                0x0000000000477fb0                . = DATA_SEGMENT_END (.)

.stab
 *(SORT(.stab))

.stabstr
 *(SORT(.stabstr))

.stab.excl
 *(SORT(.stab.excl))

.stab.exclstr
 *(SORT(.stab.exclstr))

.stab.index
 *(SORT(.stab.index))

.stab.indexstr
 *(SORT(.stab.indexstr))

.comment        0x0000000000000000       0x44
 *(SORT(.comment))
 .comment       0x0000000000000000       0x11 /home/shizhai/new_zhongwang/trunk/staging_dir/toolchain-mips_r2_gcc-4.6-linaro_uClibc-0.9.33.2/lib/gcc/mips-openwrt-linux-uclibc/4.6.4/../../../../mips-openwrt-linux-uclibc/lib/crti.o
                                         0x12 (size before relaxing)
 .comment       0x0000000000000011       0x33 /home/shizhai/new_zhongwang/trunk/staging_dir/toolchain-mips_r2_gcc-4.6-linaro_uClibc-0.9.33.2/lib/gcc/mips-openwrt-linux-uclibc/4.6.4/crtbegin.o
                                         0x34 (size before relaxing)
 .comment       0x0000000000000000       0x34 applets/built-in.o
 .comment       0x0000000000000000       0x34 libbb/lib.a(appletlib.o)
 .comment       0x0000000000000000       0x34 libbb/lib.a(default_error_retval.o)
 .comment       0x0000000000000000       0x34 libbb/lib.a(get_last_path_component.o)
 .comment       0x0000000000000000       0x34 libbb/lib.a(last_char_is.o)
 .comment       0x0000000000000000       0x34 libbb/lib.a(messages.o)
 .comment       0x0000000000000000       0x34 libbb/lib.a(ptr_to_globals.o)
 .comment       0x0000000000000000       0x34 libbb/lib.a(verror_msg.o)
 .comment       0x0000000000000000       0x34 libbb/lib.a(xfunc_die.o)
 .comment       0x0000000000000000       0x34 libbb/lib.a(xfuncs.o)
 .comment       0x0000000000000000       0x34 libbb/lib.a(xfuncs_printf.o)
 .comment       0x0000000000000000       0x34 libbb/lib.a(copyfd.o)
 .comment       0x0000000000000000       0x34 libbb/lib.a(full_write.o)
 .comment       0x0000000000000000       0x34 libbb/lib.a(perror_msg.o)
 .comment       0x0000000000000000       0x34 libbb/lib.a(read.o)
 .comment       0x0000000000000000       0x34 libbb/lib.a(safe_write.o)
 .comment       0x0000000000000000       0x34 libbb/lib.a(time.o)
 .comment       0x0000000000000000       0x34 libbb/lib.a(bb_strtonum.o)
 .comment       0x0000000000000000       0x34 loginutils/lib.a(passwd.o)
 .comment       0x0000000000000000       0x34 miscutils/lib.a(crond.o)
 .comment       0x0000000000000000       0x34 miscutils/lib.a(crontab.o)
 .comment       0x0000000000000000       0x34 miscutils/lib.a(less.o)
 .comment       0x0000000000000000       0x34 miscutils/lib.a(lock.o)
 .comment       0x0000000000000000       0x34 miscutils/lib.a(strings.o)
 .comment       0x0000000000000000       0x34 miscutils/lib.a(time.o)
 .comment       0x0000000000000000       0x34 modutils/lib.a(insmod.o)
 .comment       0x0000000000000000       0x34 modutils/lib.a(lsmod.o)
 .comment       0x0000000000000000       0x34 modutils/lib.a(modutils.o)
 .comment       0x0000000000000000       0x34 modutils/lib.a(rmmod.o)
 .comment       0x0000000000000000       0x34 networking/lib.a(arping.o)
 .comment       0x0000000000000000       0x34 networking/lib.a(brctl.o)
 .comment       0x0000000000000000       0x34 networking/lib.a(ifconfig.o)
 .comment       0x0000000000000000       0x34 networking/lib.a(interface.o)
 .comment       0x0000000000000000       0x34 networking/lib.a(nc.o)
 .comment       0x0000000000000000       0x34 networking/lib.a(netmsg.o)
 .comment       0x0000000000000000       0x34 networking/lib.a(netstat.o)
 .comment       0x0000000000000000       0x34 networking/lib.a(nslookup.o)
 .comment       0x0000000000000000       0x34 networking/lib.a(ntpd.o)
 .comment       0x0000000000000000       0x34 networking/lib.a(ping.o)
 .comment       0x0000000000000000       0x34 networking/lib.a(route.o)
 .comment       0x0000000000000000       0x34 networking/lib.a(telnet.o)
 .comment       0x0000000000000000       0x34 networking/lib.a(telnetd.o)
 .comment       0x0000000000000000       0x34 networking/lib.a(traceroute.o)
 .comment       0x0000000000000000       0x34 networking/lib.a(vconfig.o)
 .comment       0x0000000000000000       0x34 networking/lib.a(wget.o)
 .comment       0x0000000000000000       0x34 networking/udhcp/lib.a(dhcpc.o)
 .comment       0x0000000000000000       0x34 networking/udhcp/lib.a(domain_codec.o)
 .comment       0x0000000000000000       0x34 networking/udhcp/lib.a(packet.o)
 .comment       0x0000000000000000       0x34 networking/udhcp/lib.a(signalpipe.o)
 .comment       0x0000000000000000       0x34 networking/udhcp/lib.a(socket.o)
 .comment       0x0000000000000000       0x34 networking/udhcp/lib.a(common.o)
 .comment       0x0000000000000000       0x34 procps/lib.a(free.o)
 .comment       0x0000000000000000       0x34 procps/lib.a(kill.o)
 .comment       0x0000000000000000       0x34 procps/lib.a(pgrep.o)
 .comment       0x0000000000000000       0x34 procps/lib.a(pidof.o)
 .comment       0x0000000000000000       0x34 procps/lib.a(ps.o)
 .comment       0x0000000000000000       0x34 procps/lib.a(sysctl.o)
 .comment       0x0000000000000000       0x34 procps/lib.a(top.o)
 .comment       0x0000000000000000       0x34 procps/lib.a(uptime.o)
 .comment       0x0000000000000000       0x34 shell/lib.a(ash.o)
 .comment       0x0000000000000000       0x34 shell/lib.a(ash_ptr_hack.o)
 .comment       0x0000000000000000       0x34 shell/lib.a(math.o)
 .comment       0x0000000000000000       0x34 shell/lib.a(shell_common.o)
 .comment       0x0000000000000000       0x34 sysklogd/lib.a(syslogd_and_logger.o)
 .comment       0x0000000000000000       0x34 util-linux/lib.a(dmesg.o)
 .comment       0x0000000000000000       0x34 util-linux/lib.a(hexdump.o)
 .comment       0x0000000000000000       0x34 util-linux/lib.a(hwclock.o)
 .comment       0x0000000000000000       0x34 util-linux/lib.a(mkswap.o)
 .comment       0x0000000000000000       0x34 util-linux/lib.a(mount.o)
 .comment       0x0000000000000000       0x34 util-linux/lib.a(pivot_root.o)
 .comment       0x0000000000000000       0x34 util-linux/lib.a(swaponoff.o)
 .comment       0x0000000000000000       0x34 util-linux/lib.a(switch_root.o)
 .comment       0x0000000000000000       0x34 util-linux/lib.a(umount.o)
 .comment       0x0000000000000000       0x34 archival/lib.a(bbunzip.o)
 .comment       0x0000000000000000       0x34 archival/lib.a(gzip.o)
 .comment       0x0000000000000000       0x34 archival/lib.a(tar.o)
 .comment       0x0000000000000000       0x34 archival/libarchive/lib.a(data_extract_all.o)
 .comment       0x0000000000000000       0x34 archival/libarchive/lib.a(data_extract_to_stdout.o)
 .comment       0x0000000000000000       0x34 archival/libarchive/lib.a(data_skip.o)
 .comment       0x0000000000000000       0x34 archival/libarchive/lib.a(decompress_bunzip2.o)
 .comment       0x0000000000000000       0x34 archival/libarchive/lib.a(decompress_unzip.o)
 .comment       0x0000000000000000       0x34 archival/libarchive/lib.a(filter_accept_reject_list.o)
 .comment       0x0000000000000000       0x34 archival/libarchive/lib.a(find_list_entry.o)
 .comment       0x0000000000000000       0x34 archival/libarchive/lib.a(get_header_tar.o)
 .comment       0x0000000000000000       0x34 archival/libarchive/lib.a(get_header_tar_gz.o)
 .comment       0x0000000000000000       0x34 archival/libarchive/lib.a(header_list.o)
 .comment       0x0000000000000000       0x34 archival/libarchive/lib.a(header_verbose_list.o)
 .comment       0x0000000000000000       0x34 archival/libarchive/lib.a(init_handle.o)
 .comment       0x0000000000000000       0x34 archival/libarchive/lib.a(open_transformer.o)
 .comment       0x0000000000000000       0x34 archival/libarchive/lib.a(seek_by_jump.o)
 .comment       0x0000000000000000       0x34 archival/libarchive/lib.a(seek_by_read.o)
 .comment       0x0000000000000000       0x34 archival/libarchive/lib.a(data_align.o)
 .comment       0x0000000000000000       0x34 archival/libarchive/lib.a(filter_accept_all.o)
 .comment       0x0000000000000000       0x34 archival/libarchive/lib.a(header_skip.o)
 .comment       0x0000000000000000       0x34 console-tools/lib.a(clear.o)
 .comment       0x0000000000000000       0x34 console-tools/lib.a(reset.o)
 .comment       0x0000000000000000       0x34 coreutils/lib.a(basename.o)
 .comment       0x0000000000000000       0x34 coreutils/lib.a(cat.o)
 .comment       0x0000000000000000       0x34 coreutils/lib.a(chgrp.o)
 .comment       0x0000000000000000       0x34 coreutils/lib.a(chmod.o)
 .comment       0x0000000000000000       0x34 coreutils/lib.a(chown.o)
 .comment       0x0000000000000000       0x34 coreutils/lib.a(chroot.o)
 .comment       0x0000000000000000       0x34 coreutils/lib.a(cp.o)
 .comment       0x0000000000000000       0x34 coreutils/lib.a(cut.o)
 .comment       0x0000000000000000       0x34 coreutils/lib.a(date.o)
 .comment       0x0000000000000000       0x34 coreutils/lib.a(dd.o)
 .comment       0x0000000000000000       0x34 coreutils/lib.a(df.o)
 .comment       0x0000000000000000       0x34 coreutils/lib.a(dirname.o)
 .comment       0x0000000000000000       0x34 coreutils/lib.a(du.o)
 .comment       0x0000000000000000       0x34 coreutils/lib.a(echo.o)
 .comment       0x0000000000000000       0x34 coreutils/lib.a(env.o)
 .comment       0x0000000000000000       0x34 coreutils/lib.a(expr.o)
 .comment       0x0000000000000000       0x34 coreutils/lib.a(false.o)
 .comment       0x0000000000000000       0x34 coreutils/lib.a(fsync.o)
 .comment       0x0000000000000000       0x34 coreutils/lib.a(head.o)
 .comment       0x0000000000000000       0x34 coreutils/lib.a(hostid.o)
 .comment       0x0000000000000000       0x34 coreutils/lib.a(id.o)
 .comment       0x0000000000000000       0x34 coreutils/lib.a(ln.o)
 .comment       0x0000000000000000       0x34 coreutils/lib.a(ls.o)
 .comment       0x0000000000000000       0x34 coreutils/lib.a(md5_sha1_sum.o)
 .comment       0x0000000000000000       0x34 coreutils/lib.a(mkdir.o)
 .comment       0x0000000000000000       0x34 coreutils/lib.a(mkfifo.o)
 .comment       0x0000000000000000       0x34 coreutils/lib.a(mknod.o)
 .comment       0x0000000000000000       0x34 coreutils/lib.a(mv.o)
 .comment       0x0000000000000000       0x34 coreutils/lib.a(nice.o)
 .comment       0x0000000000000000       0x34 coreutils/lib.a(printf.o)
 .comment       0x0000000000000000       0x34 coreutils/lib.a(pwd.o)
 .comment       0x0000000000000000       0x34 coreutils/lib.a(readlink.o)
 .comment       0x0000000000000000       0x34 coreutils/lib.a(rm.o)
 .comment       0x0000000000000000       0x34 coreutils/lib.a(rmdir.o)
 .comment       0x0000000000000000       0x34 coreutils/lib.a(seq.o)
 .comment       0x0000000000000000       0x34 coreutils/lib.a(sleep.o)
 .comment       0x0000000000000000       0x34 coreutils/lib.a(sort.o)
 .comment       0x0000000000000000       0x34 coreutils/lib.a(sync.o)
 .comment       0x0000000000000000       0x34 coreutils/lib.a(tail.o)
 .comment       0x0000000000000000       0x34 coreutils/lib.a(tee.o)
 .comment       0x0000000000000000       0x34 coreutils/lib.a(test.o)
 .comment       0x0000000000000000       0x34 coreutils/lib.a(test_ptr_hack.o)
 .comment       0x0000000000000000       0x34 coreutils/lib.a(touch.o)
 .comment       0x0000000000000000       0x34 coreutils/lib.a(tr.o)
 .comment       0x0000000000000000       0x34 coreutils/lib.a(true.o)
 .comment       0x0000000000000000       0x34 coreutils/lib.a(uname.o)
 .comment       0x0000000000000000       0x34 coreutils/lib.a(uniq.o)
 .comment       0x0000000000000000       0x34 coreutils/lib.a(wc.o)
 .comment       0x0000000000000000       0x34 coreutils/lib.a(yes.o)
 .comment       0x0000000000000000       0x34 coreutils/libcoreutils/lib.a(cp_mv_stat.o)
 .comment       0x0000000000000000       0x34 coreutils/libcoreutils/lib.a(getopt_mk_fifo_nod.o)
 .comment       0x0000000000000000       0x34 debianutils/lib.a(mktemp.o)
 .comment       0x0000000000000000       0x34 debianutils/lib.a(start_stop_daemon.o)
 .comment       0x0000000000000000       0x34 debianutils/lib.a(which.o)
 .comment       0x0000000000000000       0x34 editors/lib.a(awk.o)
 .comment       0x0000000000000000       0x34 editors/lib.a(cmp.o)
 .comment       0x0000000000000000       0x34 editors/lib.a(sed.o)
 .comment       0x0000000000000000       0x34 editors/lib.a(vi.o)
 .comment       0x0000000000000000       0x34 findutils/lib.a(find.o)
 .comment       0x0000000000000000       0x34 findutils/lib.a(grep.o)
 .comment       0x0000000000000000       0x34 findutils/lib.a(xargs.o)
 .comment       0x0000000000000000       0x34 init/lib.a(halt.o)
 .comment       0x0000000000000000       0x34 libbb/lib.a(ask_confirmation.o)
 .comment       0x0000000000000000       0x34 libbb/lib.a(bb_askpass.o)
 .comment       0x0000000000000000       0x34 libbb/lib.a(bb_do_delay.o)
 .comment       0x0000000000000000       0x34 libbb/lib.a(bb_pwd.o)
 .comment       0x0000000000000000       0x34 libbb/lib.a(change_identity.o)
 .comment       0x0000000000000000       0x34 libbb/lib.a(compare_string_array.o)
 .comment       0x0000000000000000       0x34 libbb/lib.a(concat_path_file.o)
 .comment       0x0000000000000000       0x34 libbb/lib.a(concat_subpath_file.o)
 .comment       0x0000000000000000       0x34 libbb/lib.a(copy_file.o)
 .comment       0x0000000000000000       0x34 libbb/lib.a(crc32.o)
 .comment       0x0000000000000000       0x34 libbb/lib.a(create_icmp6_socket.o)
 .comment       0x0000000000000000       0x34 libbb/lib.a(create_icmp_socket.o)
 .comment       0x0000000000000000       0x34 libbb/lib.a(dump.o)
 .comment       0x0000000000000000       0x34 libbb/lib.a(execable.o)
 .comment       0x0000000000000000       0x34 libbb/lib.a(fclose_nonstdin.o)
 .comment       0x0000000000000000       0x34 libbb/lib.a(fflush_stdout_and_exit.o)
 .comment       0x0000000000000000       0x34 libbb/lib.a(fgets_str.o)
 .comment       0x0000000000000000       0x34 libbb/lib.a(find_mount_point.o)
 .comment       0x0000000000000000       0x34 libbb/lib.a(find_pid_by_name.o)
 .comment       0x0000000000000000       0x34 libbb/lib.a(get_line_from_file.o)
 .comment       0x0000000000000000       0x34 libbb/lib.a(get_shell_name.o)
 .comment       0x0000000000000000       0x34 libbb/lib.a(get_volsize.o)
 .comment       0x0000000000000000       0x34 libbb/lib.a(getopt32.o)
 .comment       0x0000000000000000       0x34 libbb/lib.a(getpty.o)
 .comment       0x0000000000000000       0x34 libbb/lib.a(hash_md5_sha.o)
 .comment       0x0000000000000000       0x34 libbb/lib.a(human_readable.o)
 .comment       0x0000000000000000       0x34 libbb/lib.a(inet_common.o)
 .comment       0x0000000000000000       0x34 libbb/lib.a(info_msg.o)
 .comment       0x0000000000000000       0x34 libbb/lib.a(inode_hash.o)
 .comment       0x0000000000000000       0x34 libbb/lib.a(isdirectory.o)
 .comment       0x0000000000000000       0x34 libbb/lib.a(lineedit.o)
 .comment       0x0000000000000000       0x34 libbb/lib.a(lineedit_ptr_hack.o)
 .comment       0x0000000000000000       0x34 libbb/lib.a(llist.o)
 .comment       0x0000000000000000       0x34 libbb/lib.a(login.o)
 .comment       0x0000000000000000       0x34 libbb/lib.a(loop.o)
 .comment       0x0000000000000000       0x34 libbb/lib.a(make_directory.o)
 .comment       0x0000000000000000       0x34 libbb/lib.a(makedev.o)
 .comment       0x0000000000000000       0x34 libbb/lib.a(match_fstype.o)
 .comment       0x0000000000000000       0x34 libbb/lib.a(mode_string.o)
 .comment       0x0000000000000000       0x34 libbb/lib.a(obscure.o)
 .comment       0x0000000000000000       0x34 libbb/lib.a(parse_config.o)
 .comment       0x0000000000000000       0x34 libbb/lib.a(parse_mode.o)
 .comment       0x0000000000000000       0x34 libbb/lib.a(percent_decode.o)
 .comment       0x0000000000000000       0x34 libbb/lib.a(perror_nomsg_and_die.o)
 .comment       0x0000000000000000       0x34 libbb/lib.a(pidfile.o)
 .comment       0x0000000000000000       0x34 libbb/lib.a(printable.o)
 .comment       0x0000000000000000       0x34 libbb/lib.a(printable_string.o)
 .comment       0x0000000000000000       0x34 libbb/lib.a(process_escape_sequence.o)
 .comment       0x0000000000000000       0x34 libbb/lib.a(procps.o)
 .comment       0x0000000000000000       0x34 libbb/lib.a(progress.o)
 .comment       0x0000000000000000       0x34 libbb/lib.a(pw_encrypt.o)
 .comment       0x0000000000000000       0x34 libbb/lib.a(read_key.o)
 .comment       0x0000000000000000       0x34 libbb/lib.a(read_printf.o)
 .comment       0x0000000000000000       0x34 libbb/lib.a(recursive_action.o)
 .comment       0x0000000000000000       0x34 libbb/lib.a(remove_file.o)
 .comment       0x0000000000000000       0x34 libbb/lib.a(rtc.o)
 .comment       0x0000000000000000       0x34 libbb/lib.a(safe_gethostname.o)
 .comment       0x0000000000000000       0x34 libbb/lib.a(safe_poll.o)
 .comment       0x0000000000000000       0x34 libbb/lib.a(safe_strncpy.o)
 .comment       0x0000000000000000       0x34 libbb/lib.a(setup_environment.o)
 .comment       0x0000000000000000       0x34 libbb/lib.a(signals.o)
 .comment       0x0000000000000000       0x34 libbb/lib.a(simplify_path.o)
 .comment       0x0000000000000000       0x34 libbb/lib.a(single_argv.o)
 .comment       0x0000000000000000       0x34 libbb/lib.a(skip_whitespace.o)
 .comment       0x0000000000000000       0x34 libbb/lib.a(str_tolower.o)
 .comment       0x0000000000000000       0x34 libbb/lib.a(u_signal_names.o)
 .comment       0x0000000000000000       0x34 libbb/lib.a(udp_io.o)
 .comment       0x0000000000000000       0x34 libbb/lib.a(update_passwd.o)
 .comment       0x0000000000000000       0x34 libbb/lib.a(uuencode.o)
 .comment       0x0000000000000000       0x34 libbb/lib.a(vfork_daemon_rexec.o)
 .comment       0x0000000000000000       0x34 libbb/lib.a(wfopen.o)
 .comment       0x0000000000000000       0x34 libbb/lib.a(wfopen_input.o)
 .comment       0x0000000000000000       0x34 libbb/lib.a(xatonum.o)
 .comment       0x0000000000000000       0x34 libbb/lib.a(xconnect.o)
 .comment       0x0000000000000000       0x34 libbb/lib.a(xgetcwd.o)
 .comment       0x0000000000000000       0x34 libbb/lib.a(xreadlink.o)
 .comment       0x0000000000000000       0x34 libbb/lib.a(xrealloc_vector.o)
 .comment       0x0000000000000000       0x34 libbb/lib.a(xregcomp.o)
 .comment       0x0000000000000000       0x34 libbb/lib.a(bb_bswap_64.o)
 .comment       0x0000000000000000       0x34 libbb/lib.a(bb_qsort.o)
 .comment       0x0000000000000000       0x34 libbb/lib.a(perror_nomsg.o)
 .comment       0x0000000000000000       0x34 libpwdgrp/lib.a(uidgid_get.o)
 .comment       0x0000000000000000       0x34 /home/shizhai/new_zhongwang/trunk/staging_dir/toolchain-mips_r2_gcc-4.6-linaro_uClibc-0.9.33.2/lib/gcc/mips-openwrt-linux-uclibc/4.6.4/../../../../mips-openwrt-linux-uclibc/lib/uclibc_nonshared.a(atexit.os)
 .comment       0x0000000000000000       0x34 /home/shizhai/new_zhongwang/trunk/staging_dir/toolchain-mips_r2_gcc-4.6-linaro_uClibc-0.9.33.2/lib/gcc/mips-openwrt-linux-uclibc/4.6.4/crtend.o
 .comment       0x0000000000000000       0x12 /home/shizhai/new_zhongwang/trunk/staging_dir/toolchain-mips_r2_gcc-4.6-linaro_uClibc-0.9.33.2/lib/gcc/mips-openwrt-linux-uclibc/4.6.4/../../../../mips-openwrt-linux-uclibc/lib/crtn.o

.pdr            0x0000000000000000        0x0
 .pdr           0x0000000000000000        0x0 /home/shizhai/new_zhongwang/trunk/staging_dir/toolchain-mips_r2_gcc-4.6-linaro_uClibc-0.9.33.2/lib/gcc/mips-openwrt-linux-uclibc/4.6.4/crtbegin.o
 .pdr           0x0000000000000000        0x0 applets/built-in.o
 .pdr           0x0000000000000000        0x0 libbb/lib.a(default_error_retval.o)
 .pdr           0x0000000000000000        0x0 libbb/lib.a(messages.o)
 .pdr           0x0000000000000000        0x0 libbb/lib.a(ptr_to_globals.o)
 .pdr           0x0000000000000000        0x0 shell/lib.a(ash_ptr_hack.o)
 .pdr           0x0000000000000000        0x0 coreutils/lib.a(test_ptr_hack.o)
 .pdr           0x0000000000000000        0x0 libbb/lib.a(lineedit_ptr_hack.o)
 .pdr           0x0000000000000000        0x0 /home/shizhai/new_zhongwang/trunk/staging_dir/toolchain-mips_r2_gcc-4.6-linaro_uClibc-0.9.33.2/lib/gcc/mips-openwrt-linux-uclibc/4.6.4/crtend.o
 .pdr           0x0000000000000000        0x0 /home/shizhai/new_zhongwang/trunk/staging_dir/toolchain-mips_r2_gcc-4.6-linaro_uClibc-0.9.33.2/lib/gcc/mips-openwrt-linux-uclibc/4.6.4/../../../../mips-openwrt-linux-uclibc/lib/crtn.o

.debug
 *(SORT(.debug))

.line
 *(SORT(.line))

.debug_srcinfo
 *(SORT(.debug_srcinfo))

.debug_sfnames
 *(SORT(.debug_sfnames))

.debug_aranges  0x0000000000000000       0x40
 *(SORT(.debug_aranges))
 .debug_aranges
                0x0000000000000000       0x20 /home/shizhai/new_zhongwang/trunk/staging_dir/toolchain-mips_r2_gcc-4.6-linaro_uClibc-0.9.33.2/lib/gcc/mips-openwrt-linux-uclibc/4.6.4/../../../../mips-openwrt-linux-uclibc/lib/crt1.o
 .debug_aranges
                0x0000000000000020       0x20 /home/shizhai/new_zhongwang/trunk/staging_dir/toolchain-mips_r2_gcc-4.6-linaro_uClibc-0.9.33.2/lib/gcc/mips-openwrt-linux-uclibc/4.6.4/../../../../mips-openwrt-linux-uclibc/lib/uclibc_nonshared.a(atexit.os)

.debug_pubnames
 *(SORT(.debug_pubnames))

.debug_info     0x0000000000000000      0x2f6
 *(SORT(.debug_info) SORT(.gnu.linkonce.wi.*))
 .debug_info    0x0000000000000000       0xb2 /home/shizhai/new_zhongwang/trunk/staging_dir/toolchain-mips_r2_gcc-4.6-linaro_uClibc-0.9.33.2/lib/gcc/mips-openwrt-linux-uclibc/4.6.4/../../../../mips-openwrt-linux-uclibc/lib/crt1.o
 .debug_info    0x00000000000000b2      0x244 /home/shizhai/new_zhongwang/trunk/staging_dir/toolchain-mips_r2_gcc-4.6-linaro_uClibc-0.9.33.2/lib/gcc/mips-openwrt-linux-uclibc/4.6.4/../../../../mips-openwrt-linux-uclibc/lib/uclibc_nonshared.a(atexit.os)

.debug_abbrev   0x0000000000000000      0x112
 *(SORT(.debug_abbrev))
 .debug_abbrev  0x0000000000000000       0x14 /home/shizhai/new_zhongwang/trunk/staging_dir/toolchain-mips_r2_gcc-4.6-linaro_uClibc-0.9.33.2/lib/gcc/mips-openwrt-linux-uclibc/4.6.4/../../../../mips-openwrt-linux-uclibc/lib/crt1.o
 .debug_abbrev  0x0000000000000014       0xfe /home/shizhai/new_zhongwang/trunk/staging_dir/toolchain-mips_r2_gcc-4.6-linaro_uClibc-0.9.33.2/lib/gcc/mips-openwrt-linux-uclibc/4.6.4/../../../../mips-openwrt-linux-uclibc/lib/uclibc_nonshared.a(atexit.os)

.debug_line     0x0000000000000000      0x117
 *(SORT(.debug_line))
 .debug_line    0x0000000000000000       0x5c /home/shizhai/new_zhongwang/trunk/staging_dir/toolchain-mips_r2_gcc-4.6-linaro_uClibc-0.9.33.2/lib/gcc/mips-openwrt-linux-uclibc/4.6.4/../../../../mips-openwrt-linux-uclibc/lib/crt1.o
 .debug_line    0x000000000000005c       0xbb /home/shizhai/new_zhongwang/trunk/staging_dir/toolchain-mips_r2_gcc-4.6-linaro_uClibc-0.9.33.2/lib/gcc/mips-openwrt-linux-uclibc/4.6.4/../../../../mips-openwrt-linux-uclibc/lib/uclibc_nonshared.a(atexit.os)

.debug_frame    0x0000000000000000       0x20
 *(SORT(.debug_frame))
 .debug_frame   0x0000000000000000       0x20 /home/shizhai/new_zhongwang/trunk/staging_dir/toolchain-mips_r2_gcc-4.6-linaro_uClibc-0.9.33.2/lib/gcc/mips-openwrt-linux-uclibc/4.6.4/../../../../mips-openwrt-linux-uclibc/lib/uclibc_nonshared.a(atexit.os)

.debug_str      0x0000000000000000      0x217
 *(SORT(.debug_str))
 .debug_str     0x0000000000000000      0x217 /home/shizhai/new_zhongwang/trunk/staging_dir/toolchain-mips_r2_gcc-4.6-linaro_uClibc-0.9.33.2/lib/gcc/mips-openwrt-linux-uclibc/4.6.4/../../../../mips-openwrt-linux-uclibc/lib/uclibc_nonshared.a(atexit.os)
                                        0x2cc (size before relaxing)

.debug_loc      0x0000000000000000       0x13
 *(SORT(.debug_loc))
 .debug_loc     0x0000000000000000       0x13 /home/shizhai/new_zhongwang/trunk/staging_dir/toolchain-mips_r2_gcc-4.6-linaro_uClibc-0.9.33.2/lib/gcc/mips-openwrt-linux-uclibc/4.6.4/../../../../mips-openwrt-linux-uclibc/lib/uclibc_nonshared.a(atexit.os)

.debug_macinfo
 *(SORT(.debug_macinfo))

.debug_weaknames
 *(SORT(.debug_weaknames))

.debug_funcnames
 *(SORT(.debug_funcnames))

.debug_typenames
 *(SORT(.debug_typenames))

.debug_varnames
 *(SORT(.debug_varnames))

.debug_pubtypes
 *(SORT(.debug_pubtypes))

.debug_ranges   0x0000000000000000       0x10
 *(SORT(.debug_ranges))
 .debug_ranges  0x0000000000000000       0x10 /home/shizhai/new_zhongwang/trunk/staging_dir/toolchain-mips_r2_gcc-4.6-linaro_uClibc-0.9.33.2/lib/gcc/mips-openwrt-linux-uclibc/4.6.4/../../../../mips-openwrt-linux-uclibc/lib/uclibc_nonshared.a(atexit.os)

.gnu.attributes
                0x0000000000000000       0x10
 *(SORT(.gnu.attributes))
 .gnu.attributes
                0x0000000000000000       0x10 /home/shizhai/new_zhongwang/trunk/staging_dir/toolchain-mips_r2_gcc-4.6-linaro_uClibc-0.9.33.2/lib/gcc/mips-openwrt-linux-uclibc/4.6.4/crtbegin.o
 .gnu.attributes
                0x0000000000000010       0x10 applets/built-in.o
 .gnu.attributes
                0x0000000000000020       0x10 libbb/lib.a(appletlib.o)
 .gnu.attributes
                0x0000000000000030       0x10 libbb/lib.a(default_error_retval.o)
 .gnu.attributes
                0x0000000000000040       0x10 libbb/lib.a(get_last_path_component.o)
 .gnu.attributes
                0x0000000000000050       0x10 libbb/lib.a(last_char_is.o)
 .gnu.attributes
                0x0000000000000060       0x10 libbb/lib.a(messages.o)
 .gnu.attributes
                0x0000000000000070       0x10 libbb/lib.a(ptr_to_globals.o)
 .gnu.attributes
                0x0000000000000080       0x10 libbb/lib.a(verror_msg.o)
 .gnu.attributes
                0x0000000000000090       0x10 libbb/lib.a(xfunc_die.o)
 .gnu.attributes
                0x00000000000000a0       0x10 libbb/lib.a(xfuncs.o)
 .gnu.attributes
                0x00000000000000b0       0x10 libbb/lib.a(xfuncs_printf.o)
 .gnu.attributes
                0x00000000000000c0       0x10 libbb/lib.a(copyfd.o)
 .gnu.attributes
                0x00000000000000d0       0x10 libbb/lib.a(full_write.o)
 .gnu.attributes
                0x00000000000000e0       0x10 libbb/lib.a(perror_msg.o)
 .gnu.attributes
                0x00000000000000f0       0x10 libbb/lib.a(read.o)
 .gnu.attributes
                0x0000000000000100       0x10 libbb/lib.a(safe_write.o)
 .gnu.attributes
                0x0000000000000110       0x10 libbb/lib.a(time.o)
 .gnu.attributes
                0x0000000000000120       0x10 libbb/lib.a(bb_strtonum.o)
 .gnu.attributes
                0x0000000000000130       0x10 loginutils/lib.a(passwd.o)
 .gnu.attributes
                0x0000000000000140       0x10 miscutils/lib.a(crond.o)
 .gnu.attributes
                0x0000000000000150       0x10 miscutils/lib.a(crontab.o)
 .gnu.attributes
                0x0000000000000160       0x10 miscutils/lib.a(less.o)
 .gnu.attributes
                0x0000000000000170       0x10 miscutils/lib.a(lock.o)
 .gnu.attributes
                0x0000000000000180       0x10 miscutils/lib.a(strings.o)
 .gnu.attributes
                0x0000000000000190       0x10 miscutils/lib.a(time.o)
 .gnu.attributes
                0x00000000000001a0       0x10 modutils/lib.a(insmod.o)
 .gnu.attributes
                0x00000000000001b0       0x10 modutils/lib.a(lsmod.o)
 .gnu.attributes
                0x00000000000001c0       0x10 modutils/lib.a(modutils.o)
 .gnu.attributes
                0x00000000000001d0       0x10 modutils/lib.a(rmmod.o)
 .gnu.attributes
                0x00000000000001e0       0x10 networking/lib.a(arping.o)
 .gnu.attributes
                0x00000000000001f0       0x10 networking/lib.a(brctl.o)
 .gnu.attributes
                0x0000000000000200       0x10 networking/lib.a(ifconfig.o)
 .gnu.attributes
                0x0000000000000210       0x10 networking/lib.a(interface.o)
 .gnu.attributes
                0x0000000000000220       0x10 networking/lib.a(nc.o)
 .gnu.attributes
                0x0000000000000230       0x10 networking/lib.a(netmsg.o)
 .gnu.attributes
                0x0000000000000240       0x10 networking/lib.a(netstat.o)
 .gnu.attributes
                0x0000000000000250       0x10 networking/lib.a(nslookup.o)
 .gnu.attributes
                0x0000000000000260       0x10 networking/lib.a(ntpd.o)
 .gnu.attributes
                0x0000000000000270       0x10 networking/lib.a(ping.o)
 .gnu.attributes
                0x0000000000000280       0x10 networking/lib.a(route.o)
 .gnu.attributes
                0x0000000000000290       0x10 networking/lib.a(telnet.o)
 .gnu.attributes
                0x00000000000002a0       0x10 networking/lib.a(telnetd.o)
 .gnu.attributes
                0x00000000000002b0       0x10 networking/lib.a(traceroute.o)
 .gnu.attributes
                0x00000000000002c0       0x10 networking/lib.a(vconfig.o)
 .gnu.attributes
                0x00000000000002d0       0x10 networking/lib.a(wget.o)
 .gnu.attributes
                0x00000000000002e0       0x10 networking/udhcp/lib.a(dhcpc.o)
 .gnu.attributes
                0x00000000000002f0       0x10 networking/udhcp/lib.a(domain_codec.o)
 .gnu.attributes
                0x0000000000000300       0x10 networking/udhcp/lib.a(packet.o)
 .gnu.attributes
                0x0000000000000310       0x10 networking/udhcp/lib.a(signalpipe.o)
 .gnu.attributes
                0x0000000000000320       0x10 networking/udhcp/lib.a(socket.o)
 .gnu.attributes
                0x0000000000000330       0x10 networking/udhcp/lib.a(common.o)
 .gnu.attributes
                0x0000000000000340       0x10 procps/lib.a(free.o)
 .gnu.attributes
                0x0000000000000350       0x10 procps/lib.a(kill.o)
 .gnu.attributes
                0x0000000000000360       0x10 procps/lib.a(pgrep.o)
 .gnu.attributes
                0x0000000000000370       0x10 procps/lib.a(pidof.o)
 .gnu.attributes
                0x0000000000000380       0x10 procps/lib.a(ps.o)
 .gnu.attributes
                0x0000000000000390       0x10 procps/lib.a(sysctl.o)
 .gnu.attributes
                0x00000000000003a0       0x10 procps/lib.a(top.o)
 .gnu.attributes
                0x00000000000003b0       0x10 procps/lib.a(uptime.o)
 .gnu.attributes
                0x00000000000003c0       0x10 shell/lib.a(ash.o)
 .gnu.attributes
                0x00000000000003d0       0x10 shell/lib.a(ash_ptr_hack.o)
 .gnu.attributes
                0x00000000000003e0       0x10 shell/lib.a(math.o)
 .gnu.attributes
                0x00000000000003f0       0x10 shell/lib.a(shell_common.o)
 .gnu.attributes
                0x0000000000000400       0x10 sysklogd/lib.a(syslogd_and_logger.o)
 .gnu.attributes
                0x0000000000000410       0x10 util-linux/lib.a(dmesg.o)
 .gnu.attributes
                0x0000000000000420       0x10 util-linux/lib.a(hexdump.o)
 .gnu.attributes
                0x0000000000000430       0x10 util-linux/lib.a(hwclock.o)
 .gnu.attributes
                0x0000000000000440       0x10 util-linux/lib.a(mkswap.o)
 .gnu.attributes
                0x0000000000000450       0x10 util-linux/lib.a(mount.o)
 .gnu.attributes
                0x0000000000000460       0x10 util-linux/lib.a(pivot_root.o)
 .gnu.attributes
                0x0000000000000470       0x10 util-linux/lib.a(swaponoff.o)
 .gnu.attributes
                0x0000000000000480       0x10 util-linux/lib.a(switch_root.o)
 .gnu.attributes
                0x0000000000000490       0x10 util-linux/lib.a(umount.o)
 .gnu.attributes
                0x00000000000004a0       0x10 archival/lib.a(bbunzip.o)
 .gnu.attributes
                0x00000000000004b0       0x10 archival/lib.a(gzip.o)
 .gnu.attributes
                0x00000000000004c0       0x10 archival/lib.a(tar.o)
 .gnu.attributes
                0x00000000000004d0       0x10 archival/libarchive/lib.a(data_extract_all.o)
 .gnu.attributes
                0x00000000000004e0       0x10 archival/libarchive/lib.a(data_extract_to_stdout.o)
 .gnu.attributes
                0x00000000000004f0       0x10 archival/libarchive/lib.a(data_skip.o)
 .gnu.attributes
                0x0000000000000500       0x10 archival/libarchive/lib.a(decompress_bunzip2.o)
 .gnu.attributes
                0x0000000000000510       0x10 archival/libarchive/lib.a(decompress_unzip.o)
 .gnu.attributes
                0x0000000000000520       0x10 archival/libarchive/lib.a(filter_accept_reject_list.o)
 .gnu.attributes
                0x0000000000000530       0x10 archival/libarchive/lib.a(find_list_entry.o)
 .gnu.attributes
                0x0000000000000540       0x10 archival/libarchive/lib.a(get_header_tar.o)
 .gnu.attributes
                0x0000000000000550       0x10 archival/libarchive/lib.a(get_header_tar_gz.o)
 .gnu.attributes
                0x0000000000000560       0x10 archival/libarchive/lib.a(header_list.o)
 .gnu.attributes
                0x0000000000000570       0x10 archival/libarchive/lib.a(header_verbose_list.o)
 .gnu.attributes
                0x0000000000000580       0x10 archival/libarchive/lib.a(init_handle.o)
 .gnu.attributes
                0x0000000000000590       0x10 archival/libarchive/lib.a(open_transformer.o)
 .gnu.attributes
                0x00000000000005a0       0x10 archival/libarchive/lib.a(seek_by_jump.o)
 .gnu.attributes
                0x00000000000005b0       0x10 archival/libarchive/lib.a(seek_by_read.o)
 .gnu.attributes
                0x00000000000005c0       0x10 archival/libarchive/lib.a(data_align.o)
 .gnu.attributes
                0x00000000000005d0       0x10 archival/libarchive/lib.a(filter_accept_all.o)
 .gnu.attributes
                0x00000000000005e0       0x10 archival/libarchive/lib.a(header_skip.o)
 .gnu.attributes
                0x00000000000005f0       0x10 console-tools/lib.a(clear.o)
 .gnu.attributes
                0x0000000000000600       0x10 console-tools/lib.a(reset.o)
 .gnu.attributes
                0x0000000000000610       0x10 coreutils/lib.a(basename.o)
 .gnu.attributes
                0x0000000000000620       0x10 coreutils/lib.a(cat.o)
 .gnu.attributes
                0x0000000000000630       0x10 coreutils/lib.a(chgrp.o)
 .gnu.attributes
                0x0000000000000640       0x10 coreutils/lib.a(chmod.o)
 .gnu.attributes
                0x0000000000000650       0x10 coreutils/lib.a(chown.o)
 .gnu.attributes
                0x0000000000000660       0x10 coreutils/lib.a(chroot.o)
 .gnu.attributes
                0x0000000000000670       0x10 coreutils/lib.a(cp.o)
 .gnu.attributes
                0x0000000000000680       0x10 coreutils/lib.a(cut.o)
 .gnu.attributes
                0x0000000000000690       0x10 coreutils/lib.a(date.o)
 .gnu.attributes
                0x00000000000006a0       0x10 coreutils/lib.a(dd.o)
 .gnu.attributes
                0x00000000000006b0       0x10 coreutils/lib.a(df.o)
 .gnu.attributes
                0x00000000000006c0       0x10 coreutils/lib.a(dirname.o)
 .gnu.attributes
                0x00000000000006d0       0x10 coreutils/lib.a(du.o)
 .gnu.attributes
                0x00000000000006e0       0x10 coreutils/lib.a(echo.o)
 .gnu.attributes
                0x00000000000006f0       0x10 coreutils/lib.a(env.o)
 .gnu.attributes
                0x0000000000000700       0x10 coreutils/lib.a(expr.o)
 .gnu.attributes
                0x0000000000000710       0x10 coreutils/lib.a(false.o)
 .gnu.attributes
                0x0000000000000720       0x10 coreutils/lib.a(fsync.o)
 .gnu.attributes
                0x0000000000000730       0x10 coreutils/lib.a(head.o)
 .gnu.attributes
                0x0000000000000740       0x10 coreutils/lib.a(hostid.o)
 .gnu.attributes
                0x0000000000000750       0x10 coreutils/lib.a(id.o)
 .gnu.attributes
                0x0000000000000760       0x10 coreutils/lib.a(ln.o)
 .gnu.attributes
                0x0000000000000770       0x10 coreutils/lib.a(ls.o)
 .gnu.attributes
                0x0000000000000780       0x10 coreutils/lib.a(md5_sha1_sum.o)
 .gnu.attributes
                0x0000000000000790       0x10 coreutils/lib.a(mkdir.o)
 .gnu.attributes
                0x00000000000007a0       0x10 coreutils/lib.a(mkfifo.o)
 .gnu.attributes
                0x00000000000007b0       0x10 coreutils/lib.a(mknod.o)
 .gnu.attributes
                0x00000000000007c0       0x10 coreutils/lib.a(mv.o)
 .gnu.attributes
                0x00000000000007d0       0x10 coreutils/lib.a(nice.o)
 .gnu.attributes
                0x00000000000007e0       0x10 coreutils/lib.a(printf.o)
 .gnu.attributes
                0x00000000000007f0       0x10 coreutils/lib.a(pwd.o)
 .gnu.attributes
                0x0000000000000800       0x10 coreutils/lib.a(readlink.o)
 .gnu.attributes
                0x0000000000000810       0x10 coreutils/lib.a(rm.o)
 .gnu.attributes
                0x0000000000000820       0x10 coreutils/lib.a(rmdir.o)
 .gnu.attributes
                0x0000000000000830       0x10 coreutils/lib.a(seq.o)
 .gnu.attributes
                0x0000000000000840       0x10 coreutils/lib.a(sleep.o)
 .gnu.attributes
                0x0000000000000850       0x10 coreutils/lib.a(sort.o)
 .gnu.attributes
                0x0000000000000860       0x10 coreutils/lib.a(sync.o)
 .gnu.attributes
                0x0000000000000870       0x10 coreutils/lib.a(tail.o)
 .gnu.attributes
                0x0000000000000880       0x10 coreutils/lib.a(tee.o)
 .gnu.attributes
                0x0000000000000890       0x10 coreutils/lib.a(test.o)
 .gnu.attributes
                0x00000000000008a0       0x10 coreutils/lib.a(test_ptr_hack.o)
 .gnu.attributes
                0x00000000000008b0       0x10 coreutils/lib.a(touch.o)
 .gnu.attributes
                0x00000000000008c0       0x10 coreutils/lib.a(tr.o)
 .gnu.attributes
                0x00000000000008d0       0x10 coreutils/lib.a(true.o)
 .gnu.attributes
                0x00000000000008e0       0x10 coreutils/lib.a(uname.o)
 .gnu.attributes
                0x00000000000008f0       0x10 coreutils/lib.a(uniq.o)
 .gnu.attributes
                0x0000000000000900       0x10 coreutils/lib.a(wc.o)
 .gnu.attributes
                0x0000000000000910       0x10 coreutils/lib.a(yes.o)
 .gnu.attributes
                0x0000000000000920       0x10 coreutils/libcoreutils/lib.a(cp_mv_stat.o)
 .gnu.attributes
                0x0000000000000930       0x10 coreutils/libcoreutils/lib.a(getopt_mk_fifo_nod.o)
 .gnu.attributes
                0x0000000000000940       0x10 debianutils/lib.a(mktemp.o)
 .gnu.attributes
                0x0000000000000950       0x10 debianutils/lib.a(start_stop_daemon.o)
 .gnu.attributes
                0x0000000000000960       0x10 debianutils/lib.a(which.o)
 .gnu.attributes
                0x0000000000000970       0x10 editors/lib.a(awk.o)
 .gnu.attributes
                0x0000000000000980       0x10 editors/lib.a(cmp.o)
 .gnu.attributes
                0x0000000000000990       0x10 editors/lib.a(sed.o)
 .gnu.attributes
                0x00000000000009a0       0x10 editors/lib.a(vi.o)
 .gnu.attributes
                0x00000000000009b0       0x10 findutils/lib.a(find.o)
 .gnu.attributes
                0x00000000000009c0       0x10 findutils/lib.a(grep.o)
 .gnu.attributes
                0x00000000000009d0       0x10 findutils/lib.a(xargs.o)
 .gnu.attributes
                0x00000000000009e0       0x10 init/lib.a(halt.o)
 .gnu.attributes
                0x00000000000009f0       0x10 libbb/lib.a(ask_confirmation.o)
 .gnu.attributes
                0x0000000000000a00       0x10 libbb/lib.a(bb_askpass.o)
 .gnu.attributes
                0x0000000000000a10       0x10 libbb/lib.a(bb_do_delay.o)
 .gnu.attributes
                0x0000000000000a20       0x10 libbb/lib.a(bb_pwd.o)
 .gnu.attributes
                0x0000000000000a30       0x10 libbb/lib.a(change_identity.o)
 .gnu.attributes
                0x0000000000000a40       0x10 libbb/lib.a(compare_string_array.o)
 .gnu.attributes
                0x0000000000000a50       0x10 libbb/lib.a(concat_path_file.o)
 .gnu.attributes
                0x0000000000000a60       0x10 libbb/lib.a(concat_subpath_file.o)
 .gnu.attributes
                0x0000000000000a70       0x10 libbb/lib.a(copy_file.o)
 .gnu.attributes
                0x0000000000000a80       0x10 libbb/lib.a(crc32.o)
 .gnu.attributes
                0x0000000000000a90       0x10 libbb/lib.a(create_icmp6_socket.o)
 .gnu.attributes
                0x0000000000000aa0       0x10 libbb/lib.a(create_icmp_socket.o)
 .gnu.attributes
                0x0000000000000ab0       0x10 libbb/lib.a(dump.o)
 .gnu.attributes
                0x0000000000000ac0       0x10 libbb/lib.a(execable.o)
 .gnu.attributes
                0x0000000000000ad0       0x10 libbb/lib.a(fclose_nonstdin.o)
 .gnu.attributes
                0x0000000000000ae0       0x10 libbb/lib.a(fflush_stdout_and_exit.o)
 .gnu.attributes
                0x0000000000000af0       0x10 libbb/lib.a(fgets_str.o)
 .gnu.attributes
                0x0000000000000b00       0x10 libbb/lib.a(find_mount_point.o)
 .gnu.attributes
                0x0000000000000b10       0x10 libbb/lib.a(find_pid_by_name.o)
 .gnu.attributes
                0x0000000000000b20       0x10 libbb/lib.a(get_line_from_file.o)
 .gnu.attributes
                0x0000000000000b30       0x10 libbb/lib.a(get_shell_name.o)
 .gnu.attributes
                0x0000000000000b40       0x10 libbb/lib.a(get_volsize.o)
 .gnu.attributes
                0x0000000000000b50       0x10 libbb/lib.a(getopt32.o)
 .gnu.attributes
                0x0000000000000b60       0x10 libbb/lib.a(getpty.o)
 .gnu.attributes
                0x0000000000000b70       0x10 libbb/lib.a(hash_md5_sha.o)
 .gnu.attributes
                0x0000000000000b80       0x10 libbb/lib.a(human_readable.o)
 .gnu.attributes
                0x0000000000000b90       0x10 libbb/lib.a(inet_common.o)
 .gnu.attributes
                0x0000000000000ba0       0x10 libbb/lib.a(info_msg.o)
 .gnu.attributes
                0x0000000000000bb0       0x10 libbb/lib.a(inode_hash.o)
 .gnu.attributes
                0x0000000000000bc0       0x10 libbb/lib.a(isdirectory.o)
 .gnu.attributes
                0x0000000000000bd0       0x10 libbb/lib.a(lineedit.o)
 .gnu.attributes
                0x0000000000000be0       0x10 libbb/lib.a(lineedit_ptr_hack.o)
 .gnu.attributes
                0x0000000000000bf0       0x10 libbb/lib.a(llist.o)
 .gnu.attributes
                0x0000000000000c00       0x10 libbb/lib.a(login.o)
 .gnu.attributes
                0x0000000000000c10       0x10 libbb/lib.a(loop.o)
 .gnu.attributes
                0x0000000000000c20       0x10 libbb/lib.a(make_directory.o)
 .gnu.attributes
                0x0000000000000c30       0x10 libbb/lib.a(makedev.o)
 .gnu.attributes
                0x0000000000000c40       0x10 libbb/lib.a(match_fstype.o)
 .gnu.attributes
                0x0000000000000c50       0x10 libbb/lib.a(mode_string.o)
 .gnu.attributes
                0x0000000000000c60       0x10 libbb/lib.a(obscure.o)
 .gnu.attributes
                0x0000000000000c70       0x10 libbb/lib.a(parse_config.o)
 .gnu.attributes
                0x0000000000000c80       0x10 libbb/lib.a(parse_mode.o)
 .gnu.attributes
                0x0000000000000c90       0x10 libbb/lib.a(percent_decode.o)
 .gnu.attributes
                0x0000000000000ca0       0x10 libbb/lib.a(perror_nomsg_and_die.o)
 .gnu.attributes
                0x0000000000000cb0       0x10 libbb/lib.a(pidfile.o)
 .gnu.attributes
                0x0000000000000cc0       0x10 libbb/lib.a(printable.o)
 .gnu.attributes
                0x0000000000000cd0       0x10 libbb/lib.a(printable_string.o)
 .gnu.attributes
                0x0000000000000ce0       0x10 libbb/lib.a(process_escape_sequence.o)
 .gnu.attributes
                0x0000000000000cf0       0x10 libbb/lib.a(procps.o)
 .gnu.attributes
                0x0000000000000d00       0x10 libbb/lib.a(progress.o)
 .gnu.attributes
                0x0000000000000d10       0x10 libbb/lib.a(pw_encrypt.o)
 .gnu.attributes
                0x0000000000000d20       0x10 libbb/lib.a(read_key.o)
 .gnu.attributes
                0x0000000000000d30       0x10 libbb/lib.a(read_printf.o)
 .gnu.attributes
                0x0000000000000d40       0x10 libbb/lib.a(recursive_action.o)
 .gnu.attributes
                0x0000000000000d50       0x10 libbb/lib.a(remove_file.o)
 .gnu.attributes
                0x0000000000000d60       0x10 libbb/lib.a(rtc.o)
 .gnu.attributes
                0x0000000000000d70       0x10 libbb/lib.a(safe_gethostname.o)
 .gnu.attributes
                0x0000000000000d80       0x10 libbb/lib.a(safe_poll.o)
 .gnu.attributes
                0x0000000000000d90       0x10 libbb/lib.a(safe_strncpy.o)
 .gnu.attributes
                0x0000000000000da0       0x10 libbb/lib.a(setup_environment.o)
 .gnu.attributes
                0x0000000000000db0       0x10 libbb/lib.a(signals.o)
 .gnu.attributes
                0x0000000000000dc0       0x10 libbb/lib.a(simplify_path.o)
 .gnu.attributes
                0x0000000000000dd0       0x10 libbb/lib.a(single_argv.o)
 .gnu.attributes
                0x0000000000000de0       0x10 libbb/lib.a(skip_whitespace.o)
 .gnu.attributes
                0x0000000000000df0       0x10 libbb/lib.a(str_tolower.o)
 .gnu.attributes
                0x0000000000000e00       0x10 libbb/lib.a(u_signal_names.o)
 .gnu.attributes
                0x0000000000000e10       0x10 libbb/lib.a(udp_io.o)
 .gnu.attributes
                0x0000000000000e20       0x10 libbb/lib.a(update_passwd.o)
 .gnu.attributes
                0x0000000000000e30       0x10 libbb/lib.a(uuencode.o)
 .gnu.attributes
                0x0000000000000e40       0x10 libbb/lib.a(vfork_daemon_rexec.o)
 .gnu.attributes
                0x0000000000000e50       0x10 libbb/lib.a(wfopen.o)
 .gnu.attributes
                0x0000000000000e60       0x10 libbb/lib.a(wfopen_input.o)
 .gnu.attributes
                0x0000000000000e70       0x10 libbb/lib.a(xatonum.o)
 .gnu.attributes
                0x0000000000000e80       0x10 libbb/lib.a(xconnect.o)
 .gnu.attributes
                0x0000000000000e90       0x10 libbb/lib.a(xgetcwd.o)
 .gnu.attributes
                0x0000000000000ea0       0x10 libbb/lib.a(xreadlink.o)
 .gnu.attributes
                0x0000000000000eb0       0x10 libbb/lib.a(xrealloc_vector.o)
 .gnu.attributes
                0x0000000000000ec0       0x10 libbb/lib.a(xregcomp.o)
 .gnu.attributes
                0x0000000000000ed0       0x10 libbb/lib.a(bb_bswap_64.o)
 .gnu.attributes
                0x0000000000000ee0       0x10 libbb/lib.a(bb_qsort.o)
 .gnu.attributes
                0x0000000000000ef0       0x10 libbb/lib.a(perror_nomsg.o)
 .gnu.attributes
                0x0000000000000f00       0x10 libpwdgrp/lib.a(uidgid_get.o)
 .gnu.attributes
                0x0000000000000f10       0x10 /home/shizhai/new_zhongwang/trunk/staging_dir/toolchain-mips_r2_gcc-4.6-linaro_uClibc-0.9.33.2/lib/gcc/mips-openwrt-linux-uclibc/4.6.4/../../../../mips-openwrt-linux-uclibc/lib/uclibc_nonshared.a(atexit.os)
 .gnu.attributes
                0x0000000000000f20       0x10 /home/shizhai/new_zhongwang/trunk/staging_dir/toolchain-mips_r2_gcc-4.6-linaro_uClibc-0.9.33.2/lib/gcc/mips-openwrt-linux-uclibc/4.6.4/crtend.o

.gptab.sdata
 *(SORT(.gptab.data))
 *(SORT(.gptab.sdata))

.gptab.sbss
 *(SORT(.gptab.bss))
 *(SORT(.gptab.sbss))

.mdebug.abi32   0x0000000000477fb0        0x0
 *(SORT(.mdebug.abi32))
 .mdebug.abi32  0x0000000000477fb0        0x0 /home/shizhai/new_zhongwang/trunk/staging_dir/toolchain-mips_r2_gcc-4.6-linaro_uClibc-0.9.33.2/lib/gcc/mips-openwrt-linux-uclibc/4.6.4/../../../../mips-openwrt-linux-uclibc/lib/crti.o
 .mdebug.abi32  0x0000000000477fb0        0x0 /home/shizhai/new_zhongwang/trunk/staging_dir/toolchain-mips_r2_gcc-4.6-linaro_uClibc-0.9.33.2/lib/gcc/mips-openwrt-linux-uclibc/4.6.4/crtbegin.o
 .mdebug.abi32  0x0000000000477fb0        0x0 applets/built-in.o
 .mdebug.abi32  0x0000000000477fb0        0x0 libbb/lib.a(appletlib.o)
 .mdebug.abi32  0x0000000000477fb0        0x0 libbb/lib.a(default_error_retval.o)
 .mdebug.abi32  0x0000000000477fb0        0x0 libbb/lib.a(get_last_path_component.o)
 .mdebug.abi32  0x0000000000477fb0        0x0 libbb/lib.a(last_char_is.o)
 .mdebug.abi32  0x0000000000477fb0        0x0 libbb/lib.a(messages.o)
 .mdebug.abi32  0x0000000000477fb0        0x0 libbb/lib.a(ptr_to_globals.o)
 .mdebug.abi32  0x0000000000477fb0        0x0 libbb/lib.a(verror_msg.o)
 .mdebug.abi32  0x0000000000477fb0        0x0 libbb/lib.a(xfunc_die.o)
 .mdebug.abi32  0x0000000000477fb0        0x0 libbb/lib.a(xfuncs.o)
 .mdebug.abi32  0x0000000000477fb0        0x0 libbb/lib.a(xfuncs_printf.o)
 .mdebug.abi32  0x0000000000477fb0        0x0 libbb/lib.a(copyfd.o)
 .mdebug.abi32  0x0000000000477fb0        0x0 libbb/lib.a(full_write.o)
 .mdebug.abi32  0x0000000000477fb0        0x0 libbb/lib.a(perror_msg.o)
 .mdebug.abi32  0x0000000000477fb0        0x0 libbb/lib.a(read.o)
 .mdebug.abi32  0x0000000000477fb0        0x0 libbb/lib.a(safe_write.o)
 .mdebug.abi32  0x0000000000477fb0        0x0 libbb/lib.a(time.o)
 .mdebug.abi32  0x0000000000477fb0        0x0 libbb/lib.a(bb_strtonum.o)
 .mdebug.abi32  0x0000000000477fb0        0x0 loginutils/lib.a(passwd.o)
 .mdebug.abi32  0x0000000000477fb0        0x0 miscutils/lib.a(crond.o)
 .mdebug.abi32  0x0000000000477fb0        0x0 miscutils/lib.a(crontab.o)
 .mdebug.abi32  0x0000000000477fb0        0x0 miscutils/lib.a(less.o)
 .mdebug.abi32  0x0000000000477fb0        0x0 miscutils/lib.a(lock.o)
 .mdebug.abi32  0x0000000000477fb0        0x0 miscutils/lib.a(strings.o)
 .mdebug.abi32  0x0000000000477fb0        0x0 miscutils/lib.a(time.o)
 .mdebug.abi32  0x0000000000477fb0        0x0 modutils/lib.a(insmod.o)
 .mdebug.abi32  0x0000000000477fb0        0x0 modutils/lib.a(lsmod.o)
 .mdebug.abi32  0x0000000000477fb0        0x0 modutils/lib.a(modutils.o)
 .mdebug.abi32  0x0000000000477fb0        0x0 modutils/lib.a(rmmod.o)
 .mdebug.abi32  0x0000000000477fb0        0x0 networking/lib.a(arping.o)
 .mdebug.abi32  0x0000000000477fb0        0x0 networking/lib.a(brctl.o)
 .mdebug.abi32  0x0000000000477fb0        0x0 networking/lib.a(ifconfig.o)
 .mdebug.abi32  0x0000000000477fb0        0x0 networking/lib.a(interface.o)
 .mdebug.abi32  0x0000000000477fb0        0x0 networking/lib.a(nc.o)
 .mdebug.abi32  0x0000000000477fb0        0x0 networking/lib.a(netmsg.o)
 .mdebug.abi32  0x0000000000477fb0        0x0 networking/lib.a(netstat.o)
 .mdebug.abi32  0x0000000000477fb0        0x0 networking/lib.a(nslookup.o)
 .mdebug.abi32  0x0000000000477fb0        0x0 networking/lib.a(ntpd.o)
 .mdebug.abi32  0x0000000000477fb0        0x0 networking/lib.a(ping.o)
 .mdebug.abi32  0x0000000000477fb0        0x0 networking/lib.a(route.o)
 .mdebug.abi32  0x0000000000477fb0        0x0 networking/lib.a(telnet.o)
 .mdebug.abi32  0x0000000000477fb0        0x0 networking/lib.a(telnetd.o)
 .mdebug.abi32  0x0000000000477fb0        0x0 networking/lib.a(traceroute.o)
 .mdebug.abi32  0x0000000000477fb0        0x0 networking/lib.a(vconfig.o)
 .mdebug.abi32  0x0000000000477fb0        0x0 networking/lib.a(wget.o)
 .mdebug.abi32  0x0000000000477fb0        0x0 networking/udhcp/lib.a(dhcpc.o)
 .mdebug.abi32  0x0000000000477fb0        0x0 networking/udhcp/lib.a(domain_codec.o)
 .mdebug.abi32  0x0000000000477fb0        0x0 networking/udhcp/lib.a(packet.o)
 .mdebug.abi32  0x0000000000477fb0        0x0 networking/udhcp/lib.a(signalpipe.o)
 .mdebug.abi32  0x0000000000477fb0        0x0 networking/udhcp/lib.a(socket.o)
 .mdebug.abi32  0x0000000000477fb0        0x0 networking/udhcp/lib.a(common.o)
 .mdebug.abi32  0x0000000000477fb0        0x0 procps/lib.a(free.o)
 .mdebug.abi32  0x0000000000477fb0        0x0 procps/lib.a(kill.o)
 .mdebug.abi32  0x0000000000477fb0        0x0 procps/lib.a(pgrep.o)
 .mdebug.abi32  0x0000000000477fb0        0x0 procps/lib.a(pidof.o)
 .mdebug.abi32  0x0000000000477fb0        0x0 procps/lib.a(ps.o)
 .mdebug.abi32  0x0000000000477fb0        0x0 procps/lib.a(sysctl.o)
 .mdebug.abi32  0x0000000000477fb0        0x0 procps/lib.a(top.o)
 .mdebug.abi32  0x0000000000477fb0        0x0 procps/lib.a(uptime.o)
 .mdebug.abi32  0x0000000000477fb0        0x0 shell/lib.a(ash.o)
 .mdebug.abi32  0x0000000000477fb0        0x0 shell/lib.a(ash_ptr_hack.o)
 .mdebug.abi32  0x0000000000477fb0        0x0 shell/lib.a(math.o)
 .mdebug.abi32  0x0000000000477fb0        0x0 shell/lib.a(shell_common.o)
 .mdebug.abi32  0x0000000000477fb0        0x0 sysklogd/lib.a(syslogd_and_logger.o)
 .mdebug.abi32  0x0000000000477fb0        0x0 util-linux/lib.a(dmesg.o)
 .mdebug.abi32  0x0000000000477fb0        0x0 util-linux/lib.a(hexdump.o)
 .mdebug.abi32  0x0000000000477fb0        0x0 util-linux/lib.a(hwclock.o)
 .mdebug.abi32  0x0000000000477fb0        0x0 util-linux/lib.a(mkswap.o)
 .mdebug.abi32  0x0000000000477fb0        0x0 util-linux/lib.a(mount.o)
 .mdebug.abi32  0x0000000000477fb0        0x0 util-linux/lib.a(pivot_root.o)
 .mdebug.abi32  0x0000000000477fb0        0x0 util-linux/lib.a(swaponoff.o)
 .mdebug.abi32  0x0000000000477fb0        0x0 util-linux/lib.a(switch_root.o)
 .mdebug.abi32  0x0000000000477fb0        0x0 util-linux/lib.a(umount.o)
 .mdebug.abi32  0x0000000000477fb0        0x0 archival/lib.a(bbunzip.o)
 .mdebug.abi32  0x0000000000477fb0        0x0 archival/lib.a(gzip.o)
 .mdebug.abi32  0x0000000000477fb0        0x0 archival/lib.a(tar.o)
 .mdebug.abi32  0x0000000000477fb0        0x0 archival/libarchive/lib.a(data_extract_all.o)
 .mdebug.abi32  0x0000000000477fb0        0x0 archival/libarchive/lib.a(data_extract_to_stdout.o)
 .mdebug.abi32  0x0000000000477fb0        0x0 archival/libarchive/lib.a(data_skip.o)
 .mdebug.abi32  0x0000000000477fb0        0x0 archival/libarchive/lib.a(decompress_bunzip2.o)
 .mdebug.abi32  0x0000000000477fb0        0x0 archival/libarchive/lib.a(decompress_unzip.o)
 .mdebug.abi32  0x0000000000477fb0        0x0 archival/libarchive/lib.a(filter_accept_reject_list.o)
 .mdebug.abi32  0x0000000000477fb0        0x0 archival/libarchive/lib.a(find_list_entry.o)
 .mdebug.abi32  0x0000000000477fb0        0x0 archival/libarchive/lib.a(get_header_tar.o)
 .mdebug.abi32  0x0000000000477fb0        0x0 archival/libarchive/lib.a(get_header_tar_gz.o)
 .mdebug.abi32  0x0000000000477fb0        0x0 archival/libarchive/lib.a(header_list.o)
 .mdebug.abi32  0x0000000000477fb0        0x0 archival/libarchive/lib.a(header_verbose_list.o)
 .mdebug.abi32  0x0000000000477fb0        0x0 archival/libarchive/lib.a(init_handle.o)
 .mdebug.abi32  0x0000000000477fb0        0x0 archival/libarchive/lib.a(open_transformer.o)
 .mdebug.abi32  0x0000000000477fb0        0x0 archival/libarchive/lib.a(seek_by_jump.o)
 .mdebug.abi32  0x0000000000477fb0        0x0 archival/libarchive/lib.a(seek_by_read.o)
 .mdebug.abi32  0x0000000000477fb0        0x0 archival/libarchive/lib.a(data_align.o)
 .mdebug.abi32  0x0000000000477fb0        0x0 archival/libarchive/lib.a(filter_accept_all.o)
 .mdebug.abi32  0x0000000000477fb0        0x0 archival/libarchive/lib.a(header_skip.o)
 .mdebug.abi32  0x0000000000477fb0        0x0 console-tools/lib.a(clear.o)
 .mdebug.abi32  0x0000000000477fb0        0x0 console-tools/lib.a(reset.o)
 .mdebug.abi32  0x0000000000477fb0        0x0 coreutils/lib.a(basename.o)
 .mdebug.abi32  0x0000000000477fb0        0x0 coreutils/lib.a(cat.o)
 .mdebug.abi32  0x0000000000477fb0        0x0 coreutils/lib.a(chgrp.o)
 .mdebug.abi32  0x0000000000477fb0        0x0 coreutils/lib.a(chmod.o)
 .mdebug.abi32  0x0000000000477fb0        0x0 coreutils/lib.a(chown.o)
 .mdebug.abi32  0x0000000000477fb0        0x0 coreutils/lib.a(chroot.o)
 .mdebug.abi32  0x0000000000477fb0        0x0 coreutils/lib.a(cp.o)
 .mdebug.abi32  0x0000000000477fb0        0x0 coreutils/lib.a(cut.o)
 .mdebug.abi32  0x0000000000477fb0        0x0 coreutils/lib.a(date.o)
 .mdebug.abi32  0x0000000000477fb0        0x0 coreutils/lib.a(dd.o)
 .mdebug.abi32  0x0000000000477fb0        0x0 coreutils/lib.a(df.o)
 .mdebug.abi32  0x0000000000477fb0        0x0 coreutils/lib.a(dirname.o)
 .mdebug.abi32  0x0000000000477fb0        0x0 coreutils/lib.a(du.o)
 .mdebug.abi32  0x0000000000477fb0        0x0 coreutils/lib.a(echo.o)
 .mdebug.abi32  0x0000000000477fb0        0x0 coreutils/lib.a(env.o)
 .mdebug.abi32  0x0000000000477fb0        0x0 coreutils/lib.a(expr.o)
 .mdebug.abi32  0x0000000000477fb0        0x0 coreutils/lib.a(false.o)
 .mdebug.abi32  0x0000000000477fb0        0x0 coreutils/lib.a(fsync.o)
 .mdebug.abi32  0x0000000000477fb0        0x0 coreutils/lib.a(head.o)
 .mdebug.abi32  0x0000000000477fb0        0x0 coreutils/lib.a(hostid.o)
 .mdebug.abi32  0x0000000000477fb0        0x0 coreutils/lib.a(id.o)
 .mdebug.abi32  0x0000000000477fb0        0x0 coreutils/lib.a(ln.o)
 .mdebug.abi32  0x0000000000477fb0        0x0 coreutils/lib.a(ls.o)
 .mdebug.abi32  0x0000000000477fb0        0x0 coreutils/lib.a(md5_sha1_sum.o)
 .mdebug.abi32  0x0000000000477fb0        0x0 coreutils/lib.a(mkdir.o)
 .mdebug.abi32  0x0000000000477fb0        0x0 coreutils/lib.a(mkfifo.o)
 .mdebug.abi32  0x0000000000477fb0        0x0 coreutils/lib.a(mknod.o)
 .mdebug.abi32  0x0000000000477fb0        0x0 coreutils/lib.a(mv.o)
 .mdebug.abi32  0x0000000000477fb0        0x0 coreutils/lib.a(nice.o)
 .mdebug.abi32  0x0000000000477fb0        0x0 coreutils/lib.a(printf.o)
 .mdebug.abi32  0x0000000000477fb0        0x0 coreutils/lib.a(pwd.o)
 .mdebug.abi32  0x0000000000477fb0        0x0 coreutils/lib.a(readlink.o)
 .mdebug.abi32  0x0000000000477fb0        0x0 coreutils/lib.a(rm.o)
 .mdebug.abi32  0x0000000000477fb0        0x0 coreutils/lib.a(rmdir.o)
 .mdebug.abi32  0x0000000000477fb0        0x0 coreutils/lib.a(seq.o)
 .mdebug.abi32  0x0000000000477fb0        0x0 coreutils/lib.a(sleep.o)
 .mdebug.abi32  0x0000000000477fb0        0x0 coreutils/lib.a(sort.o)
 .mdebug.abi32  0x0000000000477fb0        0x0 coreutils/lib.a(sync.o)
 .mdebug.abi32  0x0000000000477fb0        0x0 coreutils/lib.a(tail.o)
 .mdebug.abi32  0x0000000000477fb0        0x0 coreutils/lib.a(tee.o)
 .mdebug.abi32  0x0000000000477fb0        0x0 coreutils/lib.a(test.o)
 .mdebug.abi32  0x0000000000477fb0        0x0 coreutils/lib.a(test_ptr_hack.o)
 .mdebug.abi32  0x0000000000477fb0        0x0 coreutils/lib.a(touch.o)
 .mdebug.abi32  0x0000000000477fb0        0x0 coreutils/lib.a(tr.o)
 .mdebug.abi32  0x0000000000477fb0        0x0 coreutils/lib.a(true.o)
 .mdebug.abi32  0x0000000000477fb0        0x0 coreutils/lib.a(uname.o)
 .mdebug.abi32  0x0000000000477fb0        0x0 coreutils/lib.a(uniq.o)
 .mdebug.abi32  0x0000000000477fb0        0x0 coreutils/lib.a(wc.o)
 .mdebug.abi32  0x0000000000477fb0        0x0 coreutils/lib.a(yes.o)
 .mdebug.abi32  0x0000000000477fb0        0x0 coreutils/libcoreutils/lib.a(cp_mv_stat.o)
 .mdebug.abi32  0x0000000000477fb0        0x0 coreutils/libcoreutils/lib.a(getopt_mk_fifo_nod.o)
 .mdebug.abi32  0x0000000000477fb0        0x0 debianutils/lib.a(mktemp.o)
 .mdebug.abi32  0x0000000000477fb0        0x0 debianutils/lib.a(start_stop_daemon.o)
 .mdebug.abi32  0x0000000000477fb0        0x0 debianutils/lib.a(which.o)
 .mdebug.abi32  0x0000000000477fb0        0x0 editors/lib.a(awk.o)
 .mdebug.abi32  0x0000000000477fb0        0x0 editors/lib.a(cmp.o)
 .mdebug.abi32  0x0000000000477fb0        0x0 editors/lib.a(sed.o)
 .mdebug.abi32  0x0000000000477fb0        0x0 editors/lib.a(vi.o)
 .mdebug.abi32  0x0000000000477fb0        0x0 findutils/lib.a(find.o)
 .mdebug.abi32  0x0000000000477fb0        0x0 findutils/lib.a(grep.o)
 .mdebug.abi32  0x0000000000477fb0        0x0 findutils/lib.a(xargs.o)
 .mdebug.abi32  0x0000000000477fb0        0x0 init/lib.a(halt.o)
 .mdebug.abi32  0x0000000000477fb0        0x0 libbb/lib.a(ask_confirmation.o)
 .mdebug.abi32  0x0000000000477fb0        0x0 libbb/lib.a(bb_askpass.o)
 .mdebug.abi32  0x0000000000477fb0        0x0 libbb/lib.a(bb_do_delay.o)
 .mdebug.abi32  0x0000000000477fb0        0x0 libbb/lib.a(bb_pwd.o)
 .mdebug.abi32  0x0000000000477fb0        0x0 libbb/lib.a(change_identity.o)
 .mdebug.abi32  0x0000000000477fb0        0x0 libbb/lib.a(compare_string_array.o)
 .mdebug.abi32  0x0000000000477fb0        0x0 libbb/lib.a(concat_path_file.o)
 .mdebug.abi32  0x0000000000477fb0        0x0 libbb/lib.a(concat_subpath_file.o)
 .mdebug.abi32  0x0000000000477fb0        0x0 libbb/lib.a(copy_file.o)
 .mdebug.abi32  0x0000000000477fb0        0x0 libbb/lib.a(crc32.o)
 .mdebug.abi32  0x0000000000477fb0        0x0 libbb/lib.a(create_icmp6_socket.o)
 .mdebug.abi32  0x0000000000477fb0        0x0 libbb/lib.a(create_icmp_socket.o)
 .mdebug.abi32  0x0000000000477fb0        0x0 libbb/lib.a(dump.o)
 .mdebug.abi32  0x0000000000477fb0        0x0 libbb/lib.a(execable.o)
 .mdebug.abi32  0x0000000000477fb0        0x0 libbb/lib.a(fclose_nonstdin.o)
 .mdebug.abi32  0x0000000000477fb0        0x0 libbb/lib.a(fflush_stdout_and_exit.o)
 .mdebug.abi32  0x0000000000477fb0        0x0 libbb/lib.a(fgets_str.o)
 .mdebug.abi32  0x0000000000477fb0        0x0 libbb/lib.a(find_mount_point.o)
 .mdebug.abi32  0x0000000000477fb0        0x0 libbb/lib.a(find_pid_by_name.o)
 .mdebug.abi32  0x0000000000477fb0        0x0 libbb/lib.a(get_line_from_file.o)
 .mdebug.abi32  0x0000000000477fb0        0x0 libbb/lib.a(get_shell_name.o)
 .mdebug.abi32  0x0000000000477fb0        0x0 libbb/lib.a(get_volsize.o)
 .mdebug.abi32  0x0000000000477fb0        0x0 libbb/lib.a(getopt32.o)
 .mdebug.abi32  0x0000000000477fb0        0x0 libbb/lib.a(getpty.o)
 .mdebug.abi32  0x0000000000477fb0        0x0 libbb/lib.a(hash_md5_sha.o)
 .mdebug.abi32  0x0000000000477fb0        0x0 libbb/lib.a(human_readable.o)
 .mdebug.abi32  0x0000000000477fb0        0x0 libbb/lib.a(inet_common.o)
 .mdebug.abi32  0x0000000000477fb0        0x0 libbb/lib.a(info_msg.o)
 .mdebug.abi32  0x0000000000477fb0        0x0 libbb/lib.a(inode_hash.o)
 .mdebug.abi32  0x0000000000477fb0        0x0 libbb/lib.a(isdirectory.o)
 .mdebug.abi32  0x0000000000477fb0        0x0 libbb/lib.a(lineedit.o)
 .mdebug.abi32  0x0000000000477fb0        0x0 libbb/lib.a(lineedit_ptr_hack.o)
 .mdebug.abi32  0x0000000000477fb0        0x0 libbb/lib.a(llist.o)
 .mdebug.abi32  0x0000000000477fb0        0x0 libbb/lib.a(login.o)
 .mdebug.abi32  0x0000000000477fb0        0x0 libbb/lib.a(loop.o)
 .mdebug.abi32  0x0000000000477fb0        0x0 libbb/lib.a(make_directory.o)
 .mdebug.abi32  0x0000000000477fb0        0x0 libbb/lib.a(makedev.o)
 .mdebug.abi32  0x0000000000477fb0        0x0 libbb/lib.a(match_fstype.o)
 .mdebug.abi32  0x0000000000477fb0        0x0 libbb/lib.a(mode_string.o)
 .mdebug.abi32  0x0000000000477fb0        0x0 libbb/lib.a(obscure.o)
 .mdebug.abi32  0x0000000000477fb0        0x0 libbb/lib.a(parse_config.o)
 .mdebug.abi32  0x0000000000477fb0        0x0 libbb/lib.a(parse_mode.o)
 .mdebug.abi32  0x0000000000477fb0        0x0 libbb/lib.a(percent_decode.o)
 .mdebug.abi32  0x0000000000477fb0        0x0 libbb/lib.a(perror_nomsg_and_die.o)
 .mdebug.abi32  0x0000000000477fb0        0x0 libbb/lib.a(pidfile.o)
 .mdebug.abi32  0x0000000000477fb0        0x0 libbb/lib.a(printable.o)
 .mdebug.abi32  0x0000000000477fb0        0x0 libbb/lib.a(printable_string.o)
 .mdebug.abi32  0x0000000000477fb0        0x0 libbb/lib.a(process_escape_sequence.o)
 .mdebug.abi32  0x0000000000477fb0        0x0 libbb/lib.a(procps.o)
 .mdebug.abi32  0x0000000000477fb0        0x0 libbb/lib.a(progress.o)
 .mdebug.abi32  0x0000000000477fb0        0x0 libbb/lib.a(pw_encrypt.o)
 .mdebug.abi32  0x0000000000477fb0        0x0 libbb/lib.a(read_key.o)
 .mdebug.abi32  0x0000000000477fb0        0x0 libbb/lib.a(read_printf.o)
 .mdebug.abi32  0x0000000000477fb0        0x0 libbb/lib.a(recursive_action.o)
 .mdebug.abi32  0x0000000000477fb0        0x0 libbb/lib.a(remove_file.o)
 .mdebug.abi32  0x0000000000477fb0        0x0 libbb/lib.a(rtc.o)
 .mdebug.abi32  0x0000000000477fb0        0x0 libbb/lib.a(safe_gethostname.o)
 .mdebug.abi32  0x0000000000477fb0        0x0 libbb/lib.a(safe_poll.o)
 .mdebug.abi32  0x0000000000477fb0        0x0 libbb/lib.a(safe_strncpy.o)
 .mdebug.abi32  0x0000000000477fb0        0x0 libbb/lib.a(setup_environment.o)
 .mdebug.abi32  0x0000000000477fb0        0x0 libbb/lib.a(signals.o)
 .mdebug.abi32  0x0000000000477fb0        0x0 libbb/lib.a(simplify_path.o)
 .mdebug.abi32  0x0000000000477fb0        0x0 libbb/lib.a(single_argv.o)
 .mdebug.abi32  0x0000000000477fb0        0x0 libbb/lib.a(skip_whitespace.o)
 .mdebug.abi32  0x0000000000477fb0        0x0 libbb/lib.a(str_tolower.o)
 .mdebug.abi32  0x0000000000477fb0        0x0 libbb/lib.a(u_signal_names.o)
 .mdebug.abi32  0x0000000000477fb0        0x0 libbb/lib.a(udp_io.o)
 .mdebug.abi32  0x0000000000477fb0        0x0 libbb/lib.a(update_passwd.o)
 .mdebug.abi32  0x0000000000477fb0        0x0 libbb/lib.a(uuencode.o)
 .mdebug.abi32  0x0000000000477fb0        0x0 libbb/lib.a(vfork_daemon_rexec.o)
 .mdebug.abi32  0x0000000000477fb0        0x0 libbb/lib.a(wfopen.o)
 .mdebug.abi32  0x0000000000477fb0        0x0 libbb/lib.a(wfopen_input.o)
 .mdebug.abi32  0x0000000000477fb0        0x0 libbb/lib.a(xatonum.o)
 .mdebug.abi32  0x0000000000477fb0        0x0 libbb/lib.a(xconnect.o)
 .mdebug.abi32  0x0000000000477fb0        0x0 libbb/lib.a(xgetcwd.o)
 .mdebug.abi32  0x0000000000477fb0        0x0 libbb/lib.a(xreadlink.o)
 .mdebug.abi32  0x0000000000477fb0        0x0 libbb/lib.a(xrealloc_vector.o)
 .mdebug.abi32  0x0000000000477fb0        0x0 libbb/lib.a(xregcomp.o)
 .mdebug.abi32  0x0000000000477fb0        0x0 libbb/lib.a(bb_bswap_64.o)
 .mdebug.abi32  0x0000000000477fb0        0x0 libbb/lib.a(bb_qsort.o)
 .mdebug.abi32  0x0000000000477fb0        0x0 libbb/lib.a(perror_nomsg.o)
 .mdebug.abi32  0x0000000000477fb0        0x0 libpwdgrp/lib.a(uidgid_get.o)
 .mdebug.abi32  0x0000000000477fb0        0x0 /home/shizhai/new_zhongwang/trunk/staging_dir/toolchain-mips_r2_gcc-4.6-linaro_uClibc-0.9.33.2/lib/gcc/mips-openwrt-linux-uclibc/4.6.4/../../../../mips-openwrt-linux-uclibc/lib/uclibc_nonshared.a(atexit.os)
 .mdebug.abi32  0x0000000000477fb0        0x0 /home/shizhai/new_zhongwang/trunk/staging_dir/toolchain-mips_r2_gcc-4.6-linaro_uClibc-0.9.33.2/lib/gcc/mips-openwrt-linux-uclibc/4.6.4/crtend.o
 .mdebug.abi32  0x0000000000477fb0        0x0 /home/shizhai/new_zhongwang/trunk/staging_dir/toolchain-mips_r2_gcc-4.6-linaro_uClibc-0.9.33.2/lib/gcc/mips-openwrt-linux-uclibc/4.6.4/../../../../mips-openwrt-linux-uclibc/lib/crtn.o

.mdebug.abiN32
 *(SORT(.mdebug.abiN32))

.mdebug.abi64
 *(SORT(.mdebug.abi64))

.mdebug.abiO64
 *(SORT(.mdebug.abiO64))

.mdebug.eabi32
 *(SORT(.mdebug.eabi32))

.mdebug.eabi64
 *(SORT(.mdebug.eabi64))

.gcc_compiled_long32
 *(SORT(.gcc_compiled_long32))

.gcc_compiled_long64
 *(SORT(.gcc_compiled_long64))

/DISCARD/
 *(SORT(.note.GNU-stack))
 *(SORT(.gnu_debuglink))
 *(SORT(.gnu.lto_*))
OUTPUT(busybox_unstripped elf32-tradbigmips)
